
Neopixel.elf:     file format elf32-littlearm

Sections:
Idx Name          Size      VMA       LMA       File off  Algn
  0 .text         00002f10  00000000  00000000  00008000  2**2
                  CONTENTS, ALLOC, LOAD, READONLY, CODE
  1 .relocate     00000070  20000000  00002f10  00010000  2**2
                  CONTENTS, ALLOC, LOAD, DATA
  2 .bss          00000190  20000070  00002f80  00010070  2**2
                  ALLOC
  3 .stack        00002000  20000200  00003110  00010070  2**0
                  ALLOC
  4 .ARM.attributes 00000028  00000000  00000000  00010070  2**0
                  CONTENTS, READONLY
  5 .comment      0000005b  00000000  00000000  00010098  2**0
                  CONTENTS, READONLY
  6 .debug_info   00024195  00000000  00000000  000100f3  2**0
                  CONTENTS, READONLY, DEBUGGING
  7 .debug_abbrev 00002efb  00000000  00000000  00034288  2**0
                  CONTENTS, READONLY, DEBUGGING
  8 .debug_loc    00004ccb  00000000  00000000  00037183  2**0
                  CONTENTS, READONLY, DEBUGGING
  9 .debug_aranges 00000580  00000000  00000000  0003be4e  2**0
                  CONTENTS, READONLY, DEBUGGING
 10 .debug_ranges 00000578  00000000  00000000  0003c3ce  2**0
                  CONTENTS, READONLY, DEBUGGING
 11 .debug_macro  00018d47  00000000  00000000  0003c946  2**0
                  CONTENTS, READONLY, DEBUGGING
 12 .debug_line   0000cb62  00000000  00000000  0005568d  2**0
                  CONTENTS, READONLY, DEBUGGING
 13 .debug_str    0008486c  00000000  00000000  000621ef  2**0
                  CONTENTS, READONLY, DEBUGGING
 14 .debug_frame  000014a0  00000000  00000000  000e6a5c  2**2
                  CONTENTS, READONLY, DEBUGGING

Disassembly of section .text:

00000000 <_sfixed>:
       0:	20002200 	.word	0x20002200
       4:	00001905 	.word	0x00001905
       8:	00001901 	.word	0x00001901
       c:	00001901 	.word	0x00001901
	...
      2c:	00001901 	.word	0x00001901
	...
      38:	00001901 	.word	0x00001901
      3c:	00001901 	.word	0x00001901
      40:	00001901 	.word	0x00001901
      44:	00001901 	.word	0x00001901
      48:	00001901 	.word	0x00001901
      4c:	00001901 	.word	0x00001901
      50:	00001901 	.word	0x00001901
      54:	00001901 	.word	0x00001901
      58:	00001901 	.word	0x00001901
      5c:	00001901 	.word	0x00001901
      60:	00001901 	.word	0x00001901
      64:	00000e8d 	.word	0x00000e8d
      68:	00000e9d 	.word	0x00000e9d
      6c:	00000ead 	.word	0x00000ead
      70:	00000ebd 	.word	0x00000ebd
      74:	00000ecd 	.word	0x00000ecd
      78:	00000edd 	.word	0x00000edd
      7c:	00000f35 	.word	0x00000f35
      80:	00000f45 	.word	0x00000f45
      84:	00000f55 	.word	0x00000f55
      88:	00001901 	.word	0x00001901
      8c:	00001901 	.word	0x00001901
      90:	00001901 	.word	0x00001901
	...
      9c:	00001901 	.word	0x00001901
      a0:	00001901 	.word	0x00001901
      a4:	00000000 	.word	0x00000000
      a8:	00001901 	.word	0x00001901
	...

000000b4 <__do_global_dtors_aux>:
      b4:	b510      	push	{r4, lr}
      b6:	4c06      	ldr	r4, [pc, #24]	; (d0 <__do_global_dtors_aux+0x1c>)
      b8:	7823      	ldrb	r3, [r4, #0]
      ba:	2b00      	cmp	r3, #0
      bc:	d107      	bne.n	ce <__do_global_dtors_aux+0x1a>
      be:	4b05      	ldr	r3, [pc, #20]	; (d4 <__do_global_dtors_aux+0x20>)
      c0:	2b00      	cmp	r3, #0
      c2:	d002      	beq.n	ca <__do_global_dtors_aux+0x16>
      c4:	4804      	ldr	r0, [pc, #16]	; (d8 <__do_global_dtors_aux+0x24>)
      c6:	e000      	b.n	ca <__do_global_dtors_aux+0x16>
      c8:	bf00      	nop
      ca:	2301      	movs	r3, #1
      cc:	7023      	strb	r3, [r4, #0]
      ce:	bd10      	pop	{r4, pc}
      d0:	20000070 	.word	0x20000070
      d4:	00000000 	.word	0x00000000
      d8:	00002f10 	.word	0x00002f10

000000dc <frame_dummy>:
      dc:	b508      	push	{r3, lr}
      de:	4b08      	ldr	r3, [pc, #32]	; (100 <frame_dummy+0x24>)
      e0:	2b00      	cmp	r3, #0
      e2:	d003      	beq.n	ec <frame_dummy+0x10>
      e4:	4807      	ldr	r0, [pc, #28]	; (104 <frame_dummy+0x28>)
      e6:	4908      	ldr	r1, [pc, #32]	; (108 <frame_dummy+0x2c>)
      e8:	e000      	b.n	ec <frame_dummy+0x10>
      ea:	bf00      	nop
      ec:	4807      	ldr	r0, [pc, #28]	; (10c <frame_dummy+0x30>)
      ee:	6803      	ldr	r3, [r0, #0]
      f0:	2b00      	cmp	r3, #0
      f2:	d100      	bne.n	f6 <frame_dummy+0x1a>
      f4:	bd08      	pop	{r3, pc}
      f6:	4b06      	ldr	r3, [pc, #24]	; (110 <frame_dummy+0x34>)
      f8:	2b00      	cmp	r3, #0
      fa:	d0fb      	beq.n	f4 <frame_dummy+0x18>
      fc:	4798      	blx	r3
      fe:	e7f9      	b.n	f4 <frame_dummy+0x18>
     100:	00000000 	.word	0x00000000
     104:	00002f10 	.word	0x00002f10
     108:	20000074 	.word	0x20000074
     10c:	00002f10 	.word	0x00002f10
     110:	00000000 	.word	0x00000000

00000114 <delay_init>:
     114:	b510      	push	{r4, lr}
     116:	2000      	movs	r0, #0
     118:	4b08      	ldr	r3, [pc, #32]	; (13c <delay_init+0x28>)
     11a:	4798      	blx	r3
     11c:	4c08      	ldr	r4, [pc, #32]	; (140 <delay_init+0x2c>)
     11e:	21fa      	movs	r1, #250	; 0xfa
     120:	0089      	lsls	r1, r1, #2
     122:	47a0      	blx	r4
     124:	4b07      	ldr	r3, [pc, #28]	; (144 <delay_init+0x30>)
     126:	6018      	str	r0, [r3, #0]
     128:	21fa      	movs	r1, #250	; 0xfa
     12a:	0089      	lsls	r1, r1, #2
     12c:	47a0      	blx	r4
     12e:	4b06      	ldr	r3, [pc, #24]	; (148 <delay_init+0x34>)
     130:	6018      	str	r0, [r3, #0]
     132:	2205      	movs	r2, #5
     134:	4b05      	ldr	r3, [pc, #20]	; (14c <delay_init+0x38>)
     136:	601a      	str	r2, [r3, #0]
     138:	bd10      	pop	{r4, pc}
     13a:	46c0      	nop			; (mov r8, r8)
     13c:	00001691 	.word	0x00001691
     140:	00001b69 	.word	0x00001b69
     144:	20000004 	.word	0x20000004
     148:	20000000 	.word	0x20000000
     14c:	e000e010 	.word	0xe000e010

00000150 <delay_cycles_ms>:
     150:	b530      	push	{r4, r5, lr}
     152:	4b08      	ldr	r3, [pc, #32]	; (174 <delay_cycles_ms+0x24>)
     154:	681c      	ldr	r4, [r3, #0]
     156:	4a08      	ldr	r2, [pc, #32]	; (178 <delay_cycles_ms+0x28>)
     158:	2500      	movs	r5, #0
     15a:	2180      	movs	r1, #128	; 0x80
     15c:	0249      	lsls	r1, r1, #9
     15e:	e006      	b.n	16e <delay_cycles_ms+0x1e>
     160:	2c00      	cmp	r4, #0
     162:	d004      	beq.n	16e <delay_cycles_ms+0x1e>
     164:	6054      	str	r4, [r2, #4]
     166:	6095      	str	r5, [r2, #8]
     168:	6813      	ldr	r3, [r2, #0]
     16a:	420b      	tst	r3, r1
     16c:	d0fc      	beq.n	168 <delay_cycles_ms+0x18>
     16e:	3801      	subs	r0, #1
     170:	d2f6      	bcs.n	160 <delay_cycles_ms+0x10>
     172:	bd30      	pop	{r4, r5, pc}
     174:	20000004 	.word	0x20000004
     178:	e000e010 	.word	0xe000e010

0000017c <_sercom_get_sync_baud_val>:
     17c:	b510      	push	{r4, lr}
     17e:	0849      	lsrs	r1, r1, #1
     180:	2440      	movs	r4, #64	; 0x40
     182:	4281      	cmp	r1, r0
     184:	d30c      	bcc.n	1a0 <_sercom_get_sync_baud_val+0x24>
     186:	2300      	movs	r3, #0
     188:	1a09      	subs	r1, r1, r0
     18a:	3301      	adds	r3, #1
     18c:	b29b      	uxth	r3, r3
     18e:	4288      	cmp	r0, r1
     190:	d9fa      	bls.n	188 <_sercom_get_sync_baud_val+0xc>
     192:	3b01      	subs	r3, #1
     194:	b29b      	uxth	r3, r3
     196:	2440      	movs	r4, #64	; 0x40
     198:	2bff      	cmp	r3, #255	; 0xff
     19a:	d801      	bhi.n	1a0 <_sercom_get_sync_baud_val+0x24>
     19c:	8013      	strh	r3, [r2, #0]
     19e:	2400      	movs	r4, #0
     1a0:	1c20      	adds	r0, r4, #0
     1a2:	bd10      	pop	{r4, pc}

000001a4 <_sercom_get_async_baud_val>:
     1a4:	b5f0      	push	{r4, r5, r6, r7, lr}
     1a6:	465f      	mov	r7, fp
     1a8:	4656      	mov	r6, sl
     1aa:	464d      	mov	r5, r9
     1ac:	4644      	mov	r4, r8
     1ae:	b4f0      	push	{r4, r5, r6, r7}
     1b0:	b089      	sub	sp, #36	; 0x24
     1b2:	1c1c      	adds	r4, r3, #0
     1b4:	ab12      	add	r3, sp, #72	; 0x48
     1b6:	781b      	ldrb	r3, [r3, #0]
     1b8:	1c06      	adds	r6, r0, #0
     1ba:	435e      	muls	r6, r3
     1bc:	2540      	movs	r5, #64	; 0x40
     1be:	428e      	cmp	r6, r1
     1c0:	d900      	bls.n	1c4 <_sercom_get_async_baud_val+0x20>
     1c2:	e0c7      	b.n	354 <_sercom_get_async_baud_val+0x1b0>
     1c4:	1c25      	adds	r5, r4, #0
     1c6:	9207      	str	r2, [sp, #28]
     1c8:	1c0c      	adds	r4, r1, #0
     1ca:	1c02      	adds	r2, r0, #0
     1cc:	2d00      	cmp	r5, #0
     1ce:	d151      	bne.n	274 <_sercom_get_async_baud_val+0xd0>
     1d0:	1c18      	adds	r0, r3, #0
     1d2:	2100      	movs	r1, #0
     1d4:	2300      	movs	r3, #0
     1d6:	4d63      	ldr	r5, [pc, #396]	; (364 <_sercom_get_async_baud_val+0x1c0>)
     1d8:	47a8      	blx	r5
     1da:	4683      	mov	fp, r0
     1dc:	1c26      	adds	r6, r4, #0
     1de:	2700      	movs	r7, #0
     1e0:	2300      	movs	r3, #0
     1e2:	2400      	movs	r4, #0
     1e4:	9302      	str	r3, [sp, #8]
     1e6:	9403      	str	r4, [sp, #12]
     1e8:	2200      	movs	r2, #0
     1ea:	2300      	movs	r3, #0
     1ec:	203f      	movs	r0, #63	; 0x3f
     1ee:	2120      	movs	r1, #32
     1f0:	468c      	mov	ip, r1
     1f2:	391f      	subs	r1, #31
     1f4:	9600      	str	r6, [sp, #0]
     1f6:	9701      	str	r7, [sp, #4]
     1f8:	2420      	movs	r4, #32
     1fa:	4264      	negs	r4, r4
     1fc:	1904      	adds	r4, r0, r4
     1fe:	d403      	bmi.n	208 <_sercom_get_async_baud_val+0x64>
     200:	1c0d      	adds	r5, r1, #0
     202:	40a5      	lsls	r5, r4
     204:	46a8      	mov	r8, r5
     206:	e004      	b.n	212 <_sercom_get_async_baud_val+0x6e>
     208:	4664      	mov	r4, ip
     20a:	1a24      	subs	r4, r4, r0
     20c:	1c0d      	adds	r5, r1, #0
     20e:	40e5      	lsrs	r5, r4
     210:	46a8      	mov	r8, r5
     212:	1c0c      	adds	r4, r1, #0
     214:	4084      	lsls	r4, r0
     216:	46a1      	mov	r9, r4
     218:	1c14      	adds	r4, r2, #0
     21a:	1c1d      	adds	r5, r3, #0
     21c:	18a4      	adds	r4, r4, r2
     21e:	415d      	adcs	r5, r3
     220:	1c22      	adds	r2, r4, #0
     222:	1c2b      	adds	r3, r5, #0
     224:	465e      	mov	r6, fp
     226:	4647      	mov	r7, r8
     228:	423e      	tst	r6, r7
     22a:	d003      	beq.n	234 <_sercom_get_async_baud_val+0x90>
     22c:	1c0e      	adds	r6, r1, #0
     22e:	4326      	orrs	r6, r4
     230:	1c32      	adds	r2, r6, #0
     232:	1c2b      	adds	r3, r5, #0
     234:	9c01      	ldr	r4, [sp, #4]
     236:	429c      	cmp	r4, r3
     238:	d810      	bhi.n	25c <_sercom_get_async_baud_val+0xb8>
     23a:	d102      	bne.n	242 <_sercom_get_async_baud_val+0x9e>
     23c:	9c00      	ldr	r4, [sp, #0]
     23e:	4294      	cmp	r4, r2
     240:	d80c      	bhi.n	25c <_sercom_get_async_baud_val+0xb8>
     242:	9c00      	ldr	r4, [sp, #0]
     244:	9d01      	ldr	r5, [sp, #4]
     246:	1b12      	subs	r2, r2, r4
     248:	41ab      	sbcs	r3, r5
     24a:	464d      	mov	r5, r9
     24c:	9e02      	ldr	r6, [sp, #8]
     24e:	9f03      	ldr	r7, [sp, #12]
     250:	4335      	orrs	r5, r6
     252:	1c3c      	adds	r4, r7, #0
     254:	4646      	mov	r6, r8
     256:	4334      	orrs	r4, r6
     258:	9502      	str	r5, [sp, #8]
     25a:	9403      	str	r4, [sp, #12]
     25c:	3801      	subs	r0, #1
     25e:	d2cb      	bcs.n	1f8 <_sercom_get_async_baud_val+0x54>
     260:	2200      	movs	r2, #0
     262:	2301      	movs	r3, #1
     264:	9802      	ldr	r0, [sp, #8]
     266:	9903      	ldr	r1, [sp, #12]
     268:	1a12      	subs	r2, r2, r0
     26a:	418b      	sbcs	r3, r1
     26c:	0c11      	lsrs	r1, r2, #16
     26e:	041b      	lsls	r3, r3, #16
     270:	4319      	orrs	r1, r3
     272:	e06c      	b.n	34e <_sercom_get_async_baud_val+0x1aa>
     274:	2100      	movs	r1, #0
     276:	2d01      	cmp	r5, #1
     278:	d169      	bne.n	34e <_sercom_get_async_baud_val+0x1aa>
     27a:	0f61      	lsrs	r1, r4, #29
     27c:	1c0f      	adds	r7, r1, #0
     27e:	00e1      	lsls	r1, r4, #3
     280:	4688      	mov	r8, r1
     282:	1c18      	adds	r0, r3, #0
     284:	2100      	movs	r1, #0
     286:	2300      	movs	r3, #0
     288:	4c36      	ldr	r4, [pc, #216]	; (364 <_sercom_get_async_baud_val+0x1c0>)
     28a:	47a0      	blx	r4
     28c:	1c04      	adds	r4, r0, #0
     28e:	1c0d      	adds	r5, r1, #0
     290:	2300      	movs	r3, #0
     292:	469c      	mov	ip, r3
     294:	3320      	adds	r3, #32
     296:	469b      	mov	fp, r3
     298:	2601      	movs	r6, #1
     29a:	4663      	mov	r3, ip
     29c:	9305      	str	r3, [sp, #20]
     29e:	46b9      	mov	r9, r7
     2a0:	466b      	mov	r3, sp
     2a2:	7d1b      	ldrb	r3, [r3, #20]
     2a4:	9306      	str	r3, [sp, #24]
     2a6:	2300      	movs	r3, #0
     2a8:	469c      	mov	ip, r3
     2aa:	2000      	movs	r0, #0
     2ac:	2100      	movs	r1, #0
     2ae:	223f      	movs	r2, #63	; 0x3f
     2b0:	9400      	str	r4, [sp, #0]
     2b2:	9501      	str	r5, [sp, #4]
     2b4:	2320      	movs	r3, #32
     2b6:	425b      	negs	r3, r3
     2b8:	18d3      	adds	r3, r2, r3
     2ba:	d403      	bmi.n	2c4 <_sercom_get_async_baud_val+0x120>
     2bc:	1c34      	adds	r4, r6, #0
     2be:	409c      	lsls	r4, r3
     2c0:	1c23      	adds	r3, r4, #0
     2c2:	e004      	b.n	2ce <_sercom_get_async_baud_val+0x12a>
     2c4:	465b      	mov	r3, fp
     2c6:	1a9b      	subs	r3, r3, r2
     2c8:	1c34      	adds	r4, r6, #0
     2ca:	40dc      	lsrs	r4, r3
     2cc:	1c23      	adds	r3, r4, #0
     2ce:	1c37      	adds	r7, r6, #0
     2d0:	4097      	lsls	r7, r2
     2d2:	1c04      	adds	r4, r0, #0
     2d4:	1c0d      	adds	r5, r1, #0
     2d6:	1824      	adds	r4, r4, r0
     2d8:	414d      	adcs	r5, r1
     2da:	1c20      	adds	r0, r4, #0
     2dc:	1c29      	adds	r1, r5, #0
     2de:	9002      	str	r0, [sp, #8]
     2e0:	9103      	str	r1, [sp, #12]
     2e2:	4644      	mov	r4, r8
     2e4:	403c      	ands	r4, r7
     2e6:	46a2      	mov	sl, r4
     2e8:	464c      	mov	r4, r9
     2ea:	4023      	ands	r3, r4
     2ec:	4654      	mov	r4, sl
     2ee:	4323      	orrs	r3, r4
     2f0:	d005      	beq.n	2fe <_sercom_get_async_baud_val+0x15a>
     2f2:	9b02      	ldr	r3, [sp, #8]
     2f4:	9c03      	ldr	r4, [sp, #12]
     2f6:	1c1d      	adds	r5, r3, #0
     2f8:	4335      	orrs	r5, r6
     2fa:	1c28      	adds	r0, r5, #0
     2fc:	1c21      	adds	r1, r4, #0
     2fe:	9b01      	ldr	r3, [sp, #4]
     300:	428b      	cmp	r3, r1
     302:	d80a      	bhi.n	31a <_sercom_get_async_baud_val+0x176>
     304:	d102      	bne.n	30c <_sercom_get_async_baud_val+0x168>
     306:	9b00      	ldr	r3, [sp, #0]
     308:	4283      	cmp	r3, r0
     30a:	d806      	bhi.n	31a <_sercom_get_async_baud_val+0x176>
     30c:	9b00      	ldr	r3, [sp, #0]
     30e:	9c01      	ldr	r4, [sp, #4]
     310:	1ac0      	subs	r0, r0, r3
     312:	41a1      	sbcs	r1, r4
     314:	4663      	mov	r3, ip
     316:	433b      	orrs	r3, r7
     318:	469c      	mov	ip, r3
     31a:	3a01      	subs	r2, #1
     31c:	d2ca      	bcs.n	2b4 <_sercom_get_async_baud_val+0x110>
     31e:	9c00      	ldr	r4, [sp, #0]
     320:	9d01      	ldr	r5, [sp, #4]
     322:	4662      	mov	r2, ip
     324:	9905      	ldr	r1, [sp, #20]
     326:	1a53      	subs	r3, r2, r1
     328:	08db      	lsrs	r3, r3, #3
     32a:	4a0f      	ldr	r2, [pc, #60]	; (368 <_sercom_get_async_baud_val+0x1c4>)
     32c:	4293      	cmp	r3, r2
     32e:	d908      	bls.n	342 <_sercom_get_async_baud_val+0x19e>
     330:	9a06      	ldr	r2, [sp, #24]
     332:	3201      	adds	r2, #1
     334:	b2d2      	uxtb	r2, r2
     336:	9206      	str	r2, [sp, #24]
     338:	1c0a      	adds	r2, r1, #0
     33a:	3201      	adds	r2, #1
     33c:	9205      	str	r2, [sp, #20]
     33e:	2a08      	cmp	r2, #8
     340:	d1ae      	bne.n	2a0 <_sercom_get_async_baud_val+0xfc>
     342:	2540      	movs	r5, #64	; 0x40
     344:	9a06      	ldr	r2, [sp, #24]
     346:	2a08      	cmp	r2, #8
     348:	d004      	beq.n	354 <_sercom_get_async_baud_val+0x1b0>
     34a:	0351      	lsls	r1, r2, #13
     34c:	4319      	orrs	r1, r3
     34e:	9b07      	ldr	r3, [sp, #28]
     350:	8019      	strh	r1, [r3, #0]
     352:	2500      	movs	r5, #0
     354:	1c28      	adds	r0, r5, #0
     356:	b009      	add	sp, #36	; 0x24
     358:	bc3c      	pop	{r2, r3, r4, r5}
     35a:	4690      	mov	r8, r2
     35c:	4699      	mov	r9, r3
     35e:	46a2      	mov	sl, r4
     360:	46ab      	mov	fp, r5
     362:	bdf0      	pop	{r4, r5, r6, r7, pc}
     364:	00001c8d 	.word	0x00001c8d
     368:	00001fff 	.word	0x00001fff

0000036c <sercom_set_gclk_generator>:
     36c:	b510      	push	{r4, lr}
     36e:	b082      	sub	sp, #8
     370:	1c04      	adds	r4, r0, #0
     372:	4b0e      	ldr	r3, [pc, #56]	; (3ac <sercom_set_gclk_generator+0x40>)
     374:	781b      	ldrb	r3, [r3, #0]
     376:	2b00      	cmp	r3, #0
     378:	d001      	beq.n	37e <sercom_set_gclk_generator+0x12>
     37a:	2900      	cmp	r1, #0
     37c:	d00d      	beq.n	39a <sercom_set_gclk_generator+0x2e>
     37e:	a901      	add	r1, sp, #4
     380:	700c      	strb	r4, [r1, #0]
     382:	2013      	movs	r0, #19
     384:	4b0a      	ldr	r3, [pc, #40]	; (3b0 <sercom_set_gclk_generator+0x44>)
     386:	4798      	blx	r3
     388:	2013      	movs	r0, #19
     38a:	4b0a      	ldr	r3, [pc, #40]	; (3b4 <sercom_set_gclk_generator+0x48>)
     38c:	4798      	blx	r3
     38e:	4b07      	ldr	r3, [pc, #28]	; (3ac <sercom_set_gclk_generator+0x40>)
     390:	705c      	strb	r4, [r3, #1]
     392:	2201      	movs	r2, #1
     394:	701a      	strb	r2, [r3, #0]
     396:	2000      	movs	r0, #0
     398:	e006      	b.n	3a8 <sercom_set_gclk_generator+0x3c>
     39a:	4b04      	ldr	r3, [pc, #16]	; (3ac <sercom_set_gclk_generator+0x40>)
     39c:	785b      	ldrb	r3, [r3, #1]
     39e:	4283      	cmp	r3, r0
     3a0:	d001      	beq.n	3a6 <sercom_set_gclk_generator+0x3a>
     3a2:	201d      	movs	r0, #29
     3a4:	e000      	b.n	3a8 <sercom_set_gclk_generator+0x3c>
     3a6:	2000      	movs	r0, #0
     3a8:	b002      	add	sp, #8
     3aa:	bd10      	pop	{r4, pc}
     3ac:	2000008c 	.word	0x2000008c
     3b0:	000017a9 	.word	0x000017a9
     3b4:	0000171d 	.word	0x0000171d

000003b8 <_sercom_get_default_pad>:
     3b8:	4b44      	ldr	r3, [pc, #272]	; (4cc <_sercom_get_default_pad+0x114>)
     3ba:	4298      	cmp	r0, r3
     3bc:	d033      	beq.n	426 <_sercom_get_default_pad+0x6e>
     3be:	d806      	bhi.n	3ce <_sercom_get_default_pad+0x16>
     3c0:	4b43      	ldr	r3, [pc, #268]	; (4d0 <_sercom_get_default_pad+0x118>)
     3c2:	4298      	cmp	r0, r3
     3c4:	d00d      	beq.n	3e2 <_sercom_get_default_pad+0x2a>
     3c6:	4b43      	ldr	r3, [pc, #268]	; (4d4 <_sercom_get_default_pad+0x11c>)
     3c8:	4298      	cmp	r0, r3
     3ca:	d01b      	beq.n	404 <_sercom_get_default_pad+0x4c>
     3cc:	e06f      	b.n	4ae <_sercom_get_default_pad+0xf6>
     3ce:	4b42      	ldr	r3, [pc, #264]	; (4d8 <_sercom_get_default_pad+0x120>)
     3d0:	4298      	cmp	r0, r3
     3d2:	d04a      	beq.n	46a <_sercom_get_default_pad+0xb2>
     3d4:	4b41      	ldr	r3, [pc, #260]	; (4dc <_sercom_get_default_pad+0x124>)
     3d6:	4298      	cmp	r0, r3
     3d8:	d058      	beq.n	48c <_sercom_get_default_pad+0xd4>
     3da:	4b41      	ldr	r3, [pc, #260]	; (4e0 <_sercom_get_default_pad+0x128>)
     3dc:	4298      	cmp	r0, r3
     3de:	d166      	bne.n	4ae <_sercom_get_default_pad+0xf6>
     3e0:	e032      	b.n	448 <_sercom_get_default_pad+0x90>
     3e2:	2901      	cmp	r1, #1
     3e4:	d006      	beq.n	3f4 <_sercom_get_default_pad+0x3c>
     3e6:	2900      	cmp	r1, #0
     3e8:	d063      	beq.n	4b2 <_sercom_get_default_pad+0xfa>
     3ea:	2902      	cmp	r1, #2
     3ec:	d006      	beq.n	3fc <_sercom_get_default_pad+0x44>
     3ee:	2903      	cmp	r1, #3
     3f0:	d006      	beq.n	400 <_sercom_get_default_pad+0x48>
     3f2:	e001      	b.n	3f8 <_sercom_get_default_pad+0x40>
     3f4:	483b      	ldr	r0, [pc, #236]	; (4e4 <_sercom_get_default_pad+0x12c>)
     3f6:	e067      	b.n	4c8 <_sercom_get_default_pad+0x110>
     3f8:	2000      	movs	r0, #0
     3fa:	e065      	b.n	4c8 <_sercom_get_default_pad+0x110>
     3fc:	483a      	ldr	r0, [pc, #232]	; (4e8 <_sercom_get_default_pad+0x130>)
     3fe:	e063      	b.n	4c8 <_sercom_get_default_pad+0x110>
     400:	483a      	ldr	r0, [pc, #232]	; (4ec <_sercom_get_default_pad+0x134>)
     402:	e061      	b.n	4c8 <_sercom_get_default_pad+0x110>
     404:	2901      	cmp	r1, #1
     406:	d006      	beq.n	416 <_sercom_get_default_pad+0x5e>
     408:	2900      	cmp	r1, #0
     40a:	d054      	beq.n	4b6 <_sercom_get_default_pad+0xfe>
     40c:	2902      	cmp	r1, #2
     40e:	d006      	beq.n	41e <_sercom_get_default_pad+0x66>
     410:	2903      	cmp	r1, #3
     412:	d006      	beq.n	422 <_sercom_get_default_pad+0x6a>
     414:	e001      	b.n	41a <_sercom_get_default_pad+0x62>
     416:	4836      	ldr	r0, [pc, #216]	; (4f0 <_sercom_get_default_pad+0x138>)
     418:	e056      	b.n	4c8 <_sercom_get_default_pad+0x110>
     41a:	2000      	movs	r0, #0
     41c:	e054      	b.n	4c8 <_sercom_get_default_pad+0x110>
     41e:	4835      	ldr	r0, [pc, #212]	; (4f4 <_sercom_get_default_pad+0x13c>)
     420:	e052      	b.n	4c8 <_sercom_get_default_pad+0x110>
     422:	4835      	ldr	r0, [pc, #212]	; (4f8 <_sercom_get_default_pad+0x140>)
     424:	e050      	b.n	4c8 <_sercom_get_default_pad+0x110>
     426:	2901      	cmp	r1, #1
     428:	d006      	beq.n	438 <_sercom_get_default_pad+0x80>
     42a:	2900      	cmp	r1, #0
     42c:	d045      	beq.n	4ba <_sercom_get_default_pad+0x102>
     42e:	2902      	cmp	r1, #2
     430:	d006      	beq.n	440 <_sercom_get_default_pad+0x88>
     432:	2903      	cmp	r1, #3
     434:	d006      	beq.n	444 <_sercom_get_default_pad+0x8c>
     436:	e001      	b.n	43c <_sercom_get_default_pad+0x84>
     438:	4830      	ldr	r0, [pc, #192]	; (4fc <_sercom_get_default_pad+0x144>)
     43a:	e045      	b.n	4c8 <_sercom_get_default_pad+0x110>
     43c:	2000      	movs	r0, #0
     43e:	e043      	b.n	4c8 <_sercom_get_default_pad+0x110>
     440:	482f      	ldr	r0, [pc, #188]	; (500 <_sercom_get_default_pad+0x148>)
     442:	e041      	b.n	4c8 <_sercom_get_default_pad+0x110>
     444:	482f      	ldr	r0, [pc, #188]	; (504 <_sercom_get_default_pad+0x14c>)
     446:	e03f      	b.n	4c8 <_sercom_get_default_pad+0x110>
     448:	2901      	cmp	r1, #1
     44a:	d006      	beq.n	45a <_sercom_get_default_pad+0xa2>
     44c:	2900      	cmp	r1, #0
     44e:	d036      	beq.n	4be <_sercom_get_default_pad+0x106>
     450:	2902      	cmp	r1, #2
     452:	d006      	beq.n	462 <_sercom_get_default_pad+0xaa>
     454:	2903      	cmp	r1, #3
     456:	d006      	beq.n	466 <_sercom_get_default_pad+0xae>
     458:	e001      	b.n	45e <_sercom_get_default_pad+0xa6>
     45a:	482b      	ldr	r0, [pc, #172]	; (508 <_sercom_get_default_pad+0x150>)
     45c:	e034      	b.n	4c8 <_sercom_get_default_pad+0x110>
     45e:	2000      	movs	r0, #0
     460:	e032      	b.n	4c8 <_sercom_get_default_pad+0x110>
     462:	482a      	ldr	r0, [pc, #168]	; (50c <_sercom_get_default_pad+0x154>)
     464:	e030      	b.n	4c8 <_sercom_get_default_pad+0x110>
     466:	482a      	ldr	r0, [pc, #168]	; (510 <_sercom_get_default_pad+0x158>)
     468:	e02e      	b.n	4c8 <_sercom_get_default_pad+0x110>
     46a:	2901      	cmp	r1, #1
     46c:	d006      	beq.n	47c <_sercom_get_default_pad+0xc4>
     46e:	2900      	cmp	r1, #0
     470:	d027      	beq.n	4c2 <_sercom_get_default_pad+0x10a>
     472:	2902      	cmp	r1, #2
     474:	d006      	beq.n	484 <_sercom_get_default_pad+0xcc>
     476:	2903      	cmp	r1, #3
     478:	d006      	beq.n	488 <_sercom_get_default_pad+0xd0>
     47a:	e001      	b.n	480 <_sercom_get_default_pad+0xc8>
     47c:	4825      	ldr	r0, [pc, #148]	; (514 <_sercom_get_default_pad+0x15c>)
     47e:	e023      	b.n	4c8 <_sercom_get_default_pad+0x110>
     480:	2000      	movs	r0, #0
     482:	e021      	b.n	4c8 <_sercom_get_default_pad+0x110>
     484:	4824      	ldr	r0, [pc, #144]	; (518 <_sercom_get_default_pad+0x160>)
     486:	e01f      	b.n	4c8 <_sercom_get_default_pad+0x110>
     488:	4824      	ldr	r0, [pc, #144]	; (51c <_sercom_get_default_pad+0x164>)
     48a:	e01d      	b.n	4c8 <_sercom_get_default_pad+0x110>
     48c:	2901      	cmp	r1, #1
     48e:	d006      	beq.n	49e <_sercom_get_default_pad+0xe6>
     490:	2900      	cmp	r1, #0
     492:	d018      	beq.n	4c6 <_sercom_get_default_pad+0x10e>
     494:	2902      	cmp	r1, #2
     496:	d006      	beq.n	4a6 <_sercom_get_default_pad+0xee>
     498:	2903      	cmp	r1, #3
     49a:	d006      	beq.n	4aa <_sercom_get_default_pad+0xf2>
     49c:	e001      	b.n	4a2 <_sercom_get_default_pad+0xea>
     49e:	4820      	ldr	r0, [pc, #128]	; (520 <_sercom_get_default_pad+0x168>)
     4a0:	e012      	b.n	4c8 <_sercom_get_default_pad+0x110>
     4a2:	2000      	movs	r0, #0
     4a4:	e010      	b.n	4c8 <_sercom_get_default_pad+0x110>
     4a6:	481f      	ldr	r0, [pc, #124]	; (524 <_sercom_get_default_pad+0x16c>)
     4a8:	e00e      	b.n	4c8 <_sercom_get_default_pad+0x110>
     4aa:	481f      	ldr	r0, [pc, #124]	; (528 <_sercom_get_default_pad+0x170>)
     4ac:	e00c      	b.n	4c8 <_sercom_get_default_pad+0x110>
     4ae:	2000      	movs	r0, #0
     4b0:	e00a      	b.n	4c8 <_sercom_get_default_pad+0x110>
     4b2:	481e      	ldr	r0, [pc, #120]	; (52c <_sercom_get_default_pad+0x174>)
     4b4:	e008      	b.n	4c8 <_sercom_get_default_pad+0x110>
     4b6:	2003      	movs	r0, #3
     4b8:	e006      	b.n	4c8 <_sercom_get_default_pad+0x110>
     4ba:	481d      	ldr	r0, [pc, #116]	; (530 <_sercom_get_default_pad+0x178>)
     4bc:	e004      	b.n	4c8 <_sercom_get_default_pad+0x110>
     4be:	481d      	ldr	r0, [pc, #116]	; (534 <_sercom_get_default_pad+0x17c>)
     4c0:	e002      	b.n	4c8 <_sercom_get_default_pad+0x110>
     4c2:	481d      	ldr	r0, [pc, #116]	; (538 <_sercom_get_default_pad+0x180>)
     4c4:	e000      	b.n	4c8 <_sercom_get_default_pad+0x110>
     4c6:	481d      	ldr	r0, [pc, #116]	; (53c <_sercom_get_default_pad+0x184>)
     4c8:	4770      	bx	lr
     4ca:	46c0      	nop			; (mov r8, r8)
     4cc:	42001000 	.word	0x42001000
     4d0:	42000800 	.word	0x42000800
     4d4:	42000c00 	.word	0x42000c00
     4d8:	42001800 	.word	0x42001800
     4dc:	42001c00 	.word	0x42001c00
     4e0:	42001400 	.word	0x42001400
     4e4:	00050003 	.word	0x00050003
     4e8:	00060003 	.word	0x00060003
     4ec:	00070003 	.word	0x00070003
     4f0:	00010003 	.word	0x00010003
     4f4:	001e0003 	.word	0x001e0003
     4f8:	001f0003 	.word	0x001f0003
     4fc:	000d0002 	.word	0x000d0002
     500:	000e0002 	.word	0x000e0002
     504:	000f0002 	.word	0x000f0002
     508:	00110003 	.word	0x00110003
     50c:	00120003 	.word	0x00120003
     510:	00130003 	.word	0x00130003
     514:	003f0005 	.word	0x003f0005
     518:	003e0005 	.word	0x003e0005
     51c:	00520005 	.word	0x00520005
     520:	00170003 	.word	0x00170003
     524:	00180003 	.word	0x00180003
     528:	00190003 	.word	0x00190003
     52c:	00040003 	.word	0x00040003
     530:	000c0002 	.word	0x000c0002
     534:	00100003 	.word	0x00100003
     538:	00530005 	.word	0x00530005
     53c:	00160003 	.word	0x00160003

00000540 <_sercom_get_sercom_inst_index>:
     540:	b530      	push	{r4, r5, lr}
     542:	b087      	sub	sp, #28
     544:	4b0c      	ldr	r3, [pc, #48]	; (578 <_sercom_get_sercom_inst_index+0x38>)
     546:	466a      	mov	r2, sp
     548:	cb32      	ldmia	r3!, {r1, r4, r5}
     54a:	c232      	stmia	r2!, {r1, r4, r5}
     54c:	cb32      	ldmia	r3!, {r1, r4, r5}
     54e:	c232      	stmia	r2!, {r1, r4, r5}
     550:	9b00      	ldr	r3, [sp, #0]
     552:	4283      	cmp	r3, r0
     554:	d006      	beq.n	564 <_sercom_get_sercom_inst_index+0x24>
     556:	2301      	movs	r3, #1
     558:	009a      	lsls	r2, r3, #2
     55a:	4669      	mov	r1, sp
     55c:	5852      	ldr	r2, [r2, r1]
     55e:	4282      	cmp	r2, r0
     560:	d103      	bne.n	56a <_sercom_get_sercom_inst_index+0x2a>
     562:	e000      	b.n	566 <_sercom_get_sercom_inst_index+0x26>
     564:	2300      	movs	r3, #0
     566:	b2d8      	uxtb	r0, r3
     568:	e003      	b.n	572 <_sercom_get_sercom_inst_index+0x32>
     56a:	3301      	adds	r3, #1
     56c:	2b06      	cmp	r3, #6
     56e:	d1f3      	bne.n	558 <_sercom_get_sercom_inst_index+0x18>
     570:	2000      	movs	r0, #0
     572:	b007      	add	sp, #28
     574:	bd30      	pop	{r4, r5, pc}
     576:	46c0      	nop			; (mov r8, r8)
     578:	00002c80 	.word	0x00002c80

0000057c <_read>:
     57c:	b5f0      	push	{r4, r5, r6, r7, lr}
     57e:	4647      	mov	r7, r8
     580:	b480      	push	{r7}
     582:	1c0c      	adds	r4, r1, #0
     584:	4690      	mov	r8, r2
     586:	2800      	cmp	r0, #0
     588:	d110      	bne.n	5ac <_read+0x30>
     58a:	2a00      	cmp	r2, #0
     58c:	dd0a      	ble.n	5a4 <_read+0x28>
     58e:	188f      	adds	r7, r1, r2
     590:	4e09      	ldr	r6, [pc, #36]	; (5b8 <_read+0x3c>)
     592:	4d0a      	ldr	r5, [pc, #40]	; (5bc <_read+0x40>)
     594:	6830      	ldr	r0, [r6, #0]
     596:	1c21      	adds	r1, r4, #0
     598:	682b      	ldr	r3, [r5, #0]
     59a:	4798      	blx	r3
     59c:	3401      	adds	r4, #1
     59e:	42bc      	cmp	r4, r7
     5a0:	d1f8      	bne.n	594 <_read+0x18>
     5a2:	e001      	b.n	5a8 <_read+0x2c>
     5a4:	2300      	movs	r3, #0
     5a6:	4698      	mov	r8, r3
     5a8:	4640      	mov	r0, r8
     5aa:	e001      	b.n	5b0 <_read+0x34>
     5ac:	2001      	movs	r0, #1
     5ae:	4240      	negs	r0, r0
     5b0:	bc04      	pop	{r2}
     5b2:	4690      	mov	r8, r2
     5b4:	bdf0      	pop	{r4, r5, r6, r7, pc}
     5b6:	46c0      	nop			; (mov r8, r8)
     5b8:	200001b0 	.word	0x200001b0
     5bc:	200001a8 	.word	0x200001a8

000005c0 <_write>:
     5c0:	b5f0      	push	{r4, r5, r6, r7, lr}
     5c2:	4647      	mov	r7, r8
     5c4:	b480      	push	{r7}
     5c6:	3801      	subs	r0, #1
     5c8:	2802      	cmp	r0, #2
     5ca:	d815      	bhi.n	5f8 <_write+0x38>
     5cc:	2a00      	cmp	r2, #0
     5ce:	d010      	beq.n	5f2 <_write+0x32>
     5d0:	1c15      	adds	r5, r2, #0
     5d2:	1c0e      	adds	r6, r1, #0
     5d4:	2400      	movs	r4, #0
     5d6:	4b0c      	ldr	r3, [pc, #48]	; (608 <_write+0x48>)
     5d8:	4698      	mov	r8, r3
     5da:	4f0c      	ldr	r7, [pc, #48]	; (60c <_write+0x4c>)
     5dc:	4643      	mov	r3, r8
     5de:	6818      	ldr	r0, [r3, #0]
     5e0:	5d31      	ldrb	r1, [r6, r4]
     5e2:	683b      	ldr	r3, [r7, #0]
     5e4:	4798      	blx	r3
     5e6:	2800      	cmp	r0, #0
     5e8:	db09      	blt.n	5fe <_write+0x3e>
     5ea:	3401      	adds	r4, #1
     5ec:	42a5      	cmp	r5, r4
     5ee:	d1f5      	bne.n	5dc <_write+0x1c>
     5f0:	e000      	b.n	5f4 <_write+0x34>
     5f2:	2400      	movs	r4, #0
     5f4:	1c20      	adds	r0, r4, #0
     5f6:	e004      	b.n	602 <_write+0x42>
     5f8:	2001      	movs	r0, #1
     5fa:	4240      	negs	r0, r0
     5fc:	e001      	b.n	602 <_write+0x42>
     5fe:	2001      	movs	r0, #1
     600:	4240      	negs	r0, r0
     602:	bc04      	pop	{r2}
     604:	4690      	mov	r8, r2
     606:	bdf0      	pop	{r4, r5, r6, r7, pc}
     608:	200001b0 	.word	0x200001b0
     60c:	200001ac 	.word	0x200001ac

00000610 <usart_serial_getchar>:
     610:	b570      	push	{r4, r5, r6, lr}
     612:	b082      	sub	sp, #8
     614:	1c05      	adds	r5, r0, #0
     616:	1c0e      	adds	r6, r1, #0
     618:	2200      	movs	r2, #0
     61a:	466b      	mov	r3, sp
     61c:	80da      	strh	r2, [r3, #6]
     61e:	4c06      	ldr	r4, [pc, #24]	; (638 <usart_serial_getchar+0x28>)
     620:	1c28      	adds	r0, r5, #0
     622:	466b      	mov	r3, sp
     624:	1d99      	adds	r1, r3, #6
     626:	47a0      	blx	r4
     628:	2800      	cmp	r0, #0
     62a:	d1f9      	bne.n	620 <usart_serial_getchar+0x10>
     62c:	466b      	mov	r3, sp
     62e:	3306      	adds	r3, #6
     630:	881b      	ldrh	r3, [r3, #0]
     632:	7033      	strb	r3, [r6, #0]
     634:	b002      	add	sp, #8
     636:	bd70      	pop	{r4, r5, r6, pc}
     638:	00000b69 	.word	0x00000b69

0000063c <usart_serial_putchar>:
     63c:	b570      	push	{r4, r5, r6, lr}
     63e:	1c05      	adds	r5, r0, #0
     640:	b28c      	uxth	r4, r1
     642:	4e03      	ldr	r6, [pc, #12]	; (650 <usart_serial_putchar+0x14>)
     644:	1c28      	adds	r0, r5, #0
     646:	1c21      	adds	r1, r4, #0
     648:	47b0      	blx	r6
     64a:	2800      	cmp	r0, #0
     64c:	d1fa      	bne.n	644 <usart_serial_putchar+0x8>
     64e:	bd70      	pop	{r4, r5, r6, pc}
     650:	00000b3d 	.word	0x00000b3d

00000654 <USART_HOST_ISR_VECT>:
     654:	b510      	push	{r4, lr}
     656:	b082      	sub	sp, #8
     658:	466b      	mov	r3, sp
     65a:	1ddc      	adds	r4, r3, #7
     65c:	4810      	ldr	r0, [pc, #64]	; (6a0 <USART_HOST_ISR_VECT+0x4c>)
     65e:	1c21      	adds	r1, r4, #0
     660:	2201      	movs	r2, #1
     662:	4b10      	ldr	r3, [pc, #64]	; (6a4 <USART_HOST_ISR_VECT+0x50>)
     664:	4798      	blx	r3
     666:	b672      	cpsid	i
     668:	f3bf 8f5f 	dmb	sy
     66c:	2200      	movs	r2, #0
     66e:	4b0e      	ldr	r3, [pc, #56]	; (6a8 <USART_HOST_ISR_VECT+0x54>)
     670:	701a      	strb	r2, [r3, #0]
     672:	4b0e      	ldr	r3, [pc, #56]	; (6ac <USART_HOST_ISR_VECT+0x58>)
     674:	781b      	ldrb	r3, [r3, #0]
     676:	7821      	ldrb	r1, [r4, #0]
     678:	4a0d      	ldr	r2, [pc, #52]	; (6b0 <USART_HOST_ISR_VECT+0x5c>)
     67a:	54d1      	strb	r1, [r2, r3]
     67c:	2b9b      	cmp	r3, #155	; 0x9b
     67e:	d103      	bne.n	688 <USART_HOST_ISR_VECT+0x34>
     680:	2200      	movs	r2, #0
     682:	4b0a      	ldr	r3, [pc, #40]	; (6ac <USART_HOST_ISR_VECT+0x58>)
     684:	701a      	strb	r2, [r3, #0]
     686:	e002      	b.n	68e <USART_HOST_ISR_VECT+0x3a>
     688:	3301      	adds	r3, #1
     68a:	4a08      	ldr	r2, [pc, #32]	; (6ac <USART_HOST_ISR_VECT+0x58>)
     68c:	7013      	strb	r3, [r2, #0]
     68e:	2201      	movs	r2, #1
     690:	4b05      	ldr	r3, [pc, #20]	; (6a8 <USART_HOST_ISR_VECT+0x54>)
     692:	701a      	strb	r2, [r3, #0]
     694:	f3bf 8f5f 	dmb	sy
     698:	b662      	cpsie	i
     69a:	b002      	add	sp, #8
     69c:	bd10      	pop	{r4, pc}
     69e:	46c0      	nop			; (mov r8, r8)
     6a0:	2000012c 	.word	0x2000012c
     6a4:	00000be1 	.word	0x00000be1
     6a8:	20000008 	.word	0x20000008
     6ac:	20000160 	.word	0x20000160
     6b0:	20000090 	.word	0x20000090

000006b4 <sio2host_init>:
     6b4:	b5f0      	push	{r4, r5, r6, r7, lr}
     6b6:	b091      	sub	sp, #68	; 0x44
     6b8:	2380      	movs	r3, #128	; 0x80
     6ba:	05db      	lsls	r3, r3, #23
     6bc:	9300      	str	r3, [sp, #0]
     6be:	2300      	movs	r3, #0
     6c0:	9301      	str	r3, [sp, #4]
     6c2:	22ff      	movs	r2, #255	; 0xff
     6c4:	4669      	mov	r1, sp
     6c6:	810a      	strh	r2, [r1, #8]
     6c8:	2200      	movs	r2, #0
     6ca:	728b      	strb	r3, [r1, #10]
     6cc:	72cb      	strb	r3, [r1, #11]
     6ce:	2401      	movs	r4, #1
     6d0:	2124      	movs	r1, #36	; 0x24
     6d2:	4668      	mov	r0, sp
     6d4:	5444      	strb	r4, [r0, r1]
     6d6:	3101      	adds	r1, #1
     6d8:	5444      	strb	r4, [r0, r1]
     6da:	3101      	adds	r1, #1
     6dc:	5443      	strb	r3, [r0, r1]
     6de:	3101      	adds	r1, #1
     6e0:	5443      	strb	r3, [r0, r1]
     6e2:	930a      	str	r3, [sp, #40]	; 0x28
     6e4:	3105      	adds	r1, #5
     6e6:	5443      	strb	r3, [r0, r1]
     6e8:	3101      	adds	r1, #1
     6ea:	5443      	strb	r3, [r0, r1]
     6ec:	9305      	str	r3, [sp, #20]
     6ee:	8203      	strh	r3, [r0, #16]
     6f0:	76c3      	strb	r3, [r0, #27]
     6f2:	7602      	strb	r2, [r0, #24]
     6f4:	7702      	strb	r2, [r0, #28]
     6f6:	7642      	strb	r2, [r0, #25]
     6f8:	2313      	movs	r3, #19
     6fa:	7683      	strb	r3, [r0, #26]
     6fc:	7742      	strb	r2, [r0, #29]
     6fe:	2380      	movs	r3, #128	; 0x80
     700:	035b      	lsls	r3, r3, #13
     702:	9303      	str	r3, [sp, #12]
     704:	4b2f      	ldr	r3, [pc, #188]	; (7c4 <sio2host_init+0x110>)
     706:	930c      	str	r3, [sp, #48]	; 0x30
     708:	4b2f      	ldr	r3, [pc, #188]	; (7c8 <sio2host_init+0x114>)
     70a:	930d      	str	r3, [sp, #52]	; 0x34
     70c:	2301      	movs	r3, #1
     70e:	425b      	negs	r3, r3
     710:	930e      	str	r3, [sp, #56]	; 0x38
     712:	930f      	str	r3, [sp, #60]	; 0x3c
     714:	23e1      	movs	r3, #225	; 0xe1
     716:	025b      	lsls	r3, r3, #9
     718:	9308      	str	r3, [sp, #32]
     71a:	4d2c      	ldr	r5, [pc, #176]	; (7cc <sio2host_init+0x118>)
     71c:	4b2c      	ldr	r3, [pc, #176]	; (7d0 <sio2host_init+0x11c>)
     71e:	601d      	str	r5, [r3, #0]
     720:	4a2c      	ldr	r2, [pc, #176]	; (7d4 <sio2host_init+0x120>)
     722:	4b2d      	ldr	r3, [pc, #180]	; (7d8 <sio2host_init+0x124>)
     724:	601a      	str	r2, [r3, #0]
     726:	4a2d      	ldr	r2, [pc, #180]	; (7dc <sio2host_init+0x128>)
     728:	4b2d      	ldr	r3, [pc, #180]	; (7e0 <sio2host_init+0x12c>)
     72a:	601a      	str	r2, [r3, #0]
     72c:	1c28      	adds	r0, r5, #0
     72e:	492d      	ldr	r1, [pc, #180]	; (7e4 <sio2host_init+0x130>)
     730:	466a      	mov	r2, sp
     732:	4b2d      	ldr	r3, [pc, #180]	; (7e8 <sio2host_init+0x134>)
     734:	4798      	blx	r3
     736:	4f2d      	ldr	r7, [pc, #180]	; (7ec <sio2host_init+0x138>)
     738:	683b      	ldr	r3, [r7, #0]
     73a:	6898      	ldr	r0, [r3, #8]
     73c:	2100      	movs	r1, #0
     73e:	4e2c      	ldr	r6, [pc, #176]	; (7f0 <sio2host_init+0x13c>)
     740:	47b0      	blx	r6
     742:	683b      	ldr	r3, [r7, #0]
     744:	6858      	ldr	r0, [r3, #4]
     746:	2100      	movs	r1, #0
     748:	47b0      	blx	r6
     74a:	682e      	ldr	r6, [r5, #0]
     74c:	1c30      	adds	r0, r6, #0
     74e:	4b29      	ldr	r3, [pc, #164]	; (7f4 <sio2host_init+0x140>)
     750:	4798      	blx	r3
     752:	231f      	movs	r3, #31
     754:	4018      	ands	r0, r3
     756:	4084      	lsls	r4, r0
     758:	4b27      	ldr	r3, [pc, #156]	; (7f8 <sio2host_init+0x144>)
     75a:	601c      	str	r4, [r3, #0]
     75c:	682a      	ldr	r2, [r5, #0]
     75e:	69d3      	ldr	r3, [r2, #28]
     760:	2b00      	cmp	r3, #0
     762:	d1fc      	bne.n	75e <sio2host_init+0xaa>
     764:	6832      	ldr	r2, [r6, #0]
     766:	3302      	adds	r3, #2
     768:	4313      	orrs	r3, r2
     76a:	6033      	str	r3, [r6, #0]
     76c:	4b17      	ldr	r3, [pc, #92]	; (7cc <sio2host_init+0x118>)
     76e:	681b      	ldr	r3, [r3, #0]
     770:	69da      	ldr	r2, [r3, #28]
     772:	2a00      	cmp	r2, #0
     774:	d1fc      	bne.n	770 <sio2host_init+0xbc>
     776:	685a      	ldr	r2, [r3, #4]
     778:	2180      	movs	r1, #128	; 0x80
     77a:	0249      	lsls	r1, r1, #9
     77c:	430a      	orrs	r2, r1
     77e:	605a      	str	r2, [r3, #4]
     780:	2101      	movs	r1, #1
     782:	4a12      	ldr	r2, [pc, #72]	; (7cc <sio2host_init+0x118>)
     784:	71d1      	strb	r1, [r2, #7]
     786:	69da      	ldr	r2, [r3, #28]
     788:	2a00      	cmp	r2, #0
     78a:	d1fc      	bne.n	786 <sio2host_init+0xd2>
     78c:	69da      	ldr	r2, [r3, #28]
     78e:	2a00      	cmp	r2, #0
     790:	d1fc      	bne.n	78c <sio2host_init+0xd8>
     792:	685a      	ldr	r2, [r3, #4]
     794:	2180      	movs	r1, #128	; 0x80
     796:	0289      	lsls	r1, r1, #10
     798:	430a      	orrs	r2, r1
     79a:	605a      	str	r2, [r3, #4]
     79c:	2101      	movs	r1, #1
     79e:	4a0b      	ldr	r2, [pc, #44]	; (7cc <sio2host_init+0x118>)
     7a0:	7191      	strb	r1, [r2, #6]
     7a2:	69da      	ldr	r2, [r3, #28]
     7a4:	2a00      	cmp	r2, #0
     7a6:	d1fc      	bne.n	7a2 <sio2host_init+0xee>
     7a8:	2000      	movs	r0, #0
     7aa:	4914      	ldr	r1, [pc, #80]	; (7fc <sio2host_init+0x148>)
     7ac:	4b14      	ldr	r3, [pc, #80]	; (800 <sio2host_init+0x14c>)
     7ae:	4798      	blx	r3
     7b0:	2204      	movs	r2, #4
     7b2:	4b0c      	ldr	r3, [pc, #48]	; (7e4 <sio2host_init+0x130>)
     7b4:	759a      	strb	r2, [r3, #22]
     7b6:	32fd      	adds	r2, #253	; 0xfd
     7b8:	32ff      	adds	r2, #255	; 0xff
     7ba:	4b0f      	ldr	r3, [pc, #60]	; (7f8 <sio2host_init+0x144>)
     7bc:	601a      	str	r2, [r3, #0]
     7be:	b011      	add	sp, #68	; 0x44
     7c0:	bdf0      	pop	{r4, r5, r6, r7, pc}
     7c2:	46c0      	nop			; (mov r8, r8)
     7c4:	00040003 	.word	0x00040003
     7c8:	00050003 	.word	0x00050003
     7cc:	2000012c 	.word	0x2000012c
     7d0:	200001b0 	.word	0x200001b0
     7d4:	0000063d 	.word	0x0000063d
     7d8:	200001ac 	.word	0x200001ac
     7dc:	00000611 	.word	0x00000611
     7e0:	200001a8 	.word	0x200001a8
     7e4:	42000800 	.word	0x42000800
     7e8:	00000805 	.word	0x00000805
     7ec:	2000006c 	.word	0x2000006c
     7f0:	00001ef9 	.word	0x00001ef9
     7f4:	00000e61 	.word	0x00000e61
     7f8:	e000e100 	.word	0xe000e100
     7fc:	00000655 	.word	0x00000655
     800:	00000e25 	.word	0x00000e25

00000804 <usart_init>:
     804:	b5f0      	push	{r4, r5, r6, r7, lr}
     806:	465f      	mov	r7, fp
     808:	4656      	mov	r6, sl
     80a:	464d      	mov	r5, r9
     80c:	4644      	mov	r4, r8
     80e:	b4f0      	push	{r4, r5, r6, r7}
     810:	b091      	sub	sp, #68	; 0x44
     812:	1c05      	adds	r5, r0, #0
     814:	1c0c      	adds	r4, r1, #0
     816:	1c16      	adds	r6, r2, #0
     818:	6029      	str	r1, [r5, #0]
     81a:	1c08      	adds	r0, r1, #0
     81c:	4bb9      	ldr	r3, [pc, #740]	; (b04 <usart_init+0x300>)
     81e:	4798      	blx	r3
     820:	6822      	ldr	r2, [r4, #0]
     822:	2305      	movs	r3, #5
     824:	07d2      	lsls	r2, r2, #31
     826:	d500      	bpl.n	82a <usart_init+0x26>
     828:	e163      	b.n	af2 <usart_init+0x2ee>
     82a:	6822      	ldr	r2, [r4, #0]
     82c:	3317      	adds	r3, #23
     82e:	0792      	lsls	r2, r2, #30
     830:	d500      	bpl.n	834 <usart_init+0x30>
     832:	e15e      	b.n	af2 <usart_init+0x2ee>
     834:	49b4      	ldr	r1, [pc, #720]	; (b08 <usart_init+0x304>)
     836:	6a0a      	ldr	r2, [r1, #32]
     838:	1c87      	adds	r7, r0, #2
     83a:	3b1b      	subs	r3, #27
     83c:	40bb      	lsls	r3, r7
     83e:	4313      	orrs	r3, r2
     840:	620b      	str	r3, [r1, #32]
     842:	a90f      	add	r1, sp, #60	; 0x3c
     844:	272d      	movs	r7, #45	; 0x2d
     846:	5df3      	ldrb	r3, [r6, r7]
     848:	700b      	strb	r3, [r1, #0]
     84a:	3014      	adds	r0, #20
     84c:	b2c3      	uxtb	r3, r0
     84e:	9302      	str	r3, [sp, #8]
     850:	1c18      	adds	r0, r3, #0
     852:	4bae      	ldr	r3, [pc, #696]	; (b0c <usart_init+0x308>)
     854:	4798      	blx	r3
     856:	9802      	ldr	r0, [sp, #8]
     858:	4bad      	ldr	r3, [pc, #692]	; (b10 <usart_init+0x30c>)
     85a:	4798      	blx	r3
     85c:	5df0      	ldrb	r0, [r6, r7]
     85e:	2100      	movs	r1, #0
     860:	4bac      	ldr	r3, [pc, #688]	; (b14 <usart_init+0x310>)
     862:	4798      	blx	r3
     864:	7af3      	ldrb	r3, [r6, #11]
     866:	716b      	strb	r3, [r5, #5]
     868:	2324      	movs	r3, #36	; 0x24
     86a:	5cf3      	ldrb	r3, [r6, r3]
     86c:	71ab      	strb	r3, [r5, #6]
     86e:	2325      	movs	r3, #37	; 0x25
     870:	5cf3      	ldrb	r3, [r6, r3]
     872:	71eb      	strb	r3, [r5, #7]
     874:	7ef3      	ldrb	r3, [r6, #27]
     876:	722b      	strb	r3, [r5, #8]
     878:	7f33      	ldrb	r3, [r6, #28]
     87a:	726b      	strb	r3, [r5, #9]
     87c:	682b      	ldr	r3, [r5, #0]
     87e:	469a      	mov	sl, r3
     880:	1c18      	adds	r0, r3, #0
     882:	4ba0      	ldr	r3, [pc, #640]	; (b04 <usart_init+0x300>)
     884:	4798      	blx	r3
     886:	3014      	adds	r0, #20
     888:	2200      	movs	r2, #0
     88a:	230e      	movs	r3, #14
     88c:	a906      	add	r1, sp, #24
     88e:	468c      	mov	ip, r1
     890:	4463      	add	r3, ip
     892:	801a      	strh	r2, [r3, #0]
     894:	8a33      	ldrh	r3, [r6, #16]
     896:	4699      	mov	r9, r3
     898:	2380      	movs	r3, #128	; 0x80
     89a:	01db      	lsls	r3, r3, #7
     89c:	4599      	cmp	r9, r3
     89e:	d019      	beq.n	8d4 <usart_init+0xd0>
     8a0:	d804      	bhi.n	8ac <usart_init+0xa8>
     8a2:	2380      	movs	r3, #128	; 0x80
     8a4:	019b      	lsls	r3, r3, #6
     8a6:	4599      	cmp	r9, r3
     8a8:	d00a      	beq.n	8c0 <usart_init+0xbc>
     8aa:	e103      	b.n	ab4 <usart_init+0x2b0>
     8ac:	23c0      	movs	r3, #192	; 0xc0
     8ae:	01db      	lsls	r3, r3, #7
     8b0:	4599      	cmp	r9, r3
     8b2:	d00a      	beq.n	8ca <usart_init+0xc6>
     8b4:	2380      	movs	r3, #128	; 0x80
     8b6:	021b      	lsls	r3, r3, #8
     8b8:	4599      	cmp	r9, r3
     8ba:	d100      	bne.n	8be <usart_init+0xba>
     8bc:	e0ff      	b.n	abe <usart_init+0x2ba>
     8be:	e0f9      	b.n	ab4 <usart_init+0x2b0>
     8c0:	2310      	movs	r3, #16
     8c2:	4698      	mov	r8, r3
     8c4:	3b0f      	subs	r3, #15
     8c6:	9307      	str	r3, [sp, #28]
     8c8:	e0fd      	b.n	ac6 <usart_init+0x2c2>
     8ca:	2308      	movs	r3, #8
     8cc:	4698      	mov	r8, r3
     8ce:	3b07      	subs	r3, #7
     8d0:	9307      	str	r3, [sp, #28]
     8d2:	e0f8      	b.n	ac6 <usart_init+0x2c2>
     8d4:	6833      	ldr	r3, [r6, #0]
     8d6:	469b      	mov	fp, r3
     8d8:	68f3      	ldr	r3, [r6, #12]
     8da:	9302      	str	r3, [sp, #8]
     8dc:	6973      	ldr	r3, [r6, #20]
     8de:	9303      	str	r3, [sp, #12]
     8e0:	7e33      	ldrb	r3, [r6, #24]
     8e2:	9304      	str	r3, [sp, #16]
     8e4:	2326      	movs	r3, #38	; 0x26
     8e6:	5cf3      	ldrb	r3, [r6, r3]
     8e8:	9305      	str	r3, [sp, #20]
     8ea:	6872      	ldr	r2, [r6, #4]
     8ec:	9206      	str	r2, [sp, #24]
     8ee:	2a00      	cmp	r2, #0
     8f0:	d015      	beq.n	91e <usart_init+0x11a>
     8f2:	2380      	movs	r3, #128	; 0x80
     8f4:	055b      	lsls	r3, r3, #21
     8f6:	429a      	cmp	r2, r3
     8f8:	d136      	bne.n	968 <usart_init+0x164>
     8fa:	2327      	movs	r3, #39	; 0x27
     8fc:	5cf3      	ldrb	r3, [r6, r3]
     8fe:	2b00      	cmp	r3, #0
     900:	d136      	bne.n	970 <usart_init+0x16c>
     902:	6a33      	ldr	r3, [r6, #32]
     904:	4698      	mov	r8, r3
     906:	b2c0      	uxtb	r0, r0
     908:	4b83      	ldr	r3, [pc, #524]	; (b18 <usart_init+0x314>)
     90a:	4798      	blx	r3
     90c:	1c01      	adds	r1, r0, #0
     90e:	4640      	mov	r0, r8
     910:	220e      	movs	r2, #14
     912:	ab06      	add	r3, sp, #24
     914:	469c      	mov	ip, r3
     916:	4462      	add	r2, ip
     918:	4b80      	ldr	r3, [pc, #512]	; (b1c <usart_init+0x318>)
     91a:	4798      	blx	r3
     91c:	e025      	b.n	96a <usart_init+0x166>
     91e:	2308      	movs	r3, #8
     920:	4698      	mov	r8, r3
     922:	2300      	movs	r3, #0
     924:	9307      	str	r3, [sp, #28]
     926:	2327      	movs	r3, #39	; 0x27
     928:	5cf3      	ldrb	r3, [r6, r3]
     92a:	2b00      	cmp	r3, #0
     92c:	d00b      	beq.n	946 <usart_init+0x142>
     92e:	4643      	mov	r3, r8
     930:	9300      	str	r3, [sp, #0]
     932:	6a30      	ldr	r0, [r6, #32]
     934:	6ab1      	ldr	r1, [r6, #40]	; 0x28
     936:	220e      	movs	r2, #14
     938:	ab06      	add	r3, sp, #24
     93a:	469c      	mov	ip, r3
     93c:	4462      	add	r2, ip
     93e:	9b07      	ldr	r3, [sp, #28]
     940:	4f77      	ldr	r7, [pc, #476]	; (b20 <usart_init+0x31c>)
     942:	47b8      	blx	r7
     944:	e011      	b.n	96a <usart_init+0x166>
     946:	6a33      	ldr	r3, [r6, #32]
     948:	1c1f      	adds	r7, r3, #0
     94a:	b2c0      	uxtb	r0, r0
     94c:	4b72      	ldr	r3, [pc, #456]	; (b18 <usart_init+0x314>)
     94e:	4798      	blx	r3
     950:	1c01      	adds	r1, r0, #0
     952:	4643      	mov	r3, r8
     954:	9300      	str	r3, [sp, #0]
     956:	1c38      	adds	r0, r7, #0
     958:	220e      	movs	r2, #14
     95a:	ab06      	add	r3, sp, #24
     95c:	469c      	mov	ip, r3
     95e:	4462      	add	r2, ip
     960:	9b07      	ldr	r3, [sp, #28]
     962:	4f6f      	ldr	r7, [pc, #444]	; (b20 <usart_init+0x31c>)
     964:	47b8      	blx	r7
     966:	e000      	b.n	96a <usart_init+0x166>
     968:	2000      	movs	r0, #0
     96a:	1e03      	subs	r3, r0, #0
     96c:	d000      	beq.n	970 <usart_init+0x16c>
     96e:	e0c0      	b.n	af2 <usart_init+0x2ee>
     970:	7e73      	ldrb	r3, [r6, #25]
     972:	2b00      	cmp	r3, #0
     974:	d002      	beq.n	97c <usart_init+0x178>
     976:	7eb3      	ldrb	r3, [r6, #26]
     978:	4652      	mov	r2, sl
     97a:	7393      	strb	r3, [r2, #14]
     97c:	682a      	ldr	r2, [r5, #0]
     97e:	9f06      	ldr	r7, [sp, #24]
     980:	69d3      	ldr	r3, [r2, #28]
     982:	2b00      	cmp	r3, #0
     984:	d1fc      	bne.n	980 <usart_init+0x17c>
     986:	330e      	adds	r3, #14
     988:	aa06      	add	r2, sp, #24
     98a:	4694      	mov	ip, r2
     98c:	4463      	add	r3, ip
     98e:	881b      	ldrh	r3, [r3, #0]
     990:	4652      	mov	r2, sl
     992:	8193      	strh	r3, [r2, #12]
     994:	9b02      	ldr	r3, [sp, #8]
     996:	465a      	mov	r2, fp
     998:	4313      	orrs	r3, r2
     99a:	9a03      	ldr	r2, [sp, #12]
     99c:	4313      	orrs	r3, r2
     99e:	433b      	orrs	r3, r7
     9a0:	464a      	mov	r2, r9
     9a2:	4313      	orrs	r3, r2
     9a4:	9a04      	ldr	r2, [sp, #16]
     9a6:	0212      	lsls	r2, r2, #8
     9a8:	4313      	orrs	r3, r2
     9aa:	9a05      	ldr	r2, [sp, #20]
     9ac:	0757      	lsls	r7, r2, #29
     9ae:	431f      	orrs	r7, r3
     9b0:	2327      	movs	r3, #39	; 0x27
     9b2:	5cf3      	ldrb	r3, [r6, r3]
     9b4:	2b00      	cmp	r3, #0
     9b6:	d101      	bne.n	9bc <usart_init+0x1b8>
     9b8:	3304      	adds	r3, #4
     9ba:	431f      	orrs	r7, r3
     9bc:	7f33      	ldrb	r3, [r6, #28]
     9be:	0259      	lsls	r1, r3, #9
     9c0:	7e72      	ldrb	r2, [r6, #25]
     9c2:	0293      	lsls	r3, r2, #10
     9c4:	430b      	orrs	r3, r1
     9c6:	7f72      	ldrb	r2, [r6, #29]
     9c8:	0212      	lsls	r2, r2, #8
     9ca:	4313      	orrs	r3, r2
     9cc:	2224      	movs	r2, #36	; 0x24
     9ce:	5cb2      	ldrb	r2, [r6, r2]
     9d0:	0452      	lsls	r2, r2, #17
     9d2:	4313      	orrs	r3, r2
     9d4:	2225      	movs	r2, #37	; 0x25
     9d6:	5cb2      	ldrb	r2, [r6, r2]
     9d8:	0412      	lsls	r2, r2, #16
     9da:	4313      	orrs	r3, r2
     9dc:	7af1      	ldrb	r1, [r6, #11]
     9de:	4319      	orrs	r1, r3
     9e0:	8933      	ldrh	r3, [r6, #8]
     9e2:	2bff      	cmp	r3, #255	; 0xff
     9e4:	d004      	beq.n	9f0 <usart_init+0x1ec>
     9e6:	2280      	movs	r2, #128	; 0x80
     9e8:	0452      	lsls	r2, r2, #17
     9ea:	4317      	orrs	r7, r2
     9ec:	4319      	orrs	r1, r3
     9ee:	e005      	b.n	9fc <usart_init+0x1f8>
     9f0:	7ef3      	ldrb	r3, [r6, #27]
     9f2:	2b00      	cmp	r3, #0
     9f4:	d002      	beq.n	9fc <usart_init+0x1f8>
     9f6:	2380      	movs	r3, #128	; 0x80
     9f8:	04db      	lsls	r3, r3, #19
     9fa:	431f      	orrs	r7, r3
     9fc:	232c      	movs	r3, #44	; 0x2c
     9fe:	5cf3      	ldrb	r3, [r6, r3]
     a00:	2b00      	cmp	r3, #0
     a02:	d103      	bne.n	a0c <usart_init+0x208>
     a04:	4b47      	ldr	r3, [pc, #284]	; (b24 <usart_init+0x320>)
     a06:	789b      	ldrb	r3, [r3, #2]
     a08:	079b      	lsls	r3, r3, #30
     a0a:	d501      	bpl.n	a10 <usart_init+0x20c>
     a0c:	2380      	movs	r3, #128	; 0x80
     a0e:	431f      	orrs	r7, r3
     a10:	682a      	ldr	r2, [r5, #0]
     a12:	69d3      	ldr	r3, [r2, #28]
     a14:	2b00      	cmp	r3, #0
     a16:	d1fc      	bne.n	a12 <usart_init+0x20e>
     a18:	4653      	mov	r3, sl
     a1a:	6059      	str	r1, [r3, #4]
     a1c:	682a      	ldr	r2, [r5, #0]
     a1e:	69d3      	ldr	r3, [r2, #28]
     a20:	2b00      	cmp	r3, #0
     a22:	d1fc      	bne.n	a1e <usart_init+0x21a>
     a24:	4653      	mov	r3, sl
     a26:	601f      	str	r7, [r3, #0]
     a28:	ab0e      	add	r3, sp, #56	; 0x38
     a2a:	2280      	movs	r2, #128	; 0x80
     a2c:	701a      	strb	r2, [r3, #0]
     a2e:	2200      	movs	r2, #0
     a30:	705a      	strb	r2, [r3, #1]
     a32:	70da      	strb	r2, [r3, #3]
     a34:	709a      	strb	r2, [r3, #2]
     a36:	6b33      	ldr	r3, [r6, #48]	; 0x30
     a38:	930a      	str	r3, [sp, #40]	; 0x28
     a3a:	6b73      	ldr	r3, [r6, #52]	; 0x34
     a3c:	930b      	str	r3, [sp, #44]	; 0x2c
     a3e:	6bb3      	ldr	r3, [r6, #56]	; 0x38
     a40:	930c      	str	r3, [sp, #48]	; 0x30
     a42:	6bf3      	ldr	r3, [r6, #60]	; 0x3c
     a44:	9302      	str	r3, [sp, #8]
     a46:	930d      	str	r3, [sp, #52]	; 0x34
     a48:	2700      	movs	r7, #0
     a4a:	ae0e      	add	r6, sp, #56	; 0x38
     a4c:	b2f9      	uxtb	r1, r7
     a4e:	00bb      	lsls	r3, r7, #2
     a50:	aa0a      	add	r2, sp, #40	; 0x28
     a52:	5898      	ldr	r0, [r3, r2]
     a54:	2800      	cmp	r0, #0
     a56:	d102      	bne.n	a5e <usart_init+0x25a>
     a58:	1c20      	adds	r0, r4, #0
     a5a:	4b33      	ldr	r3, [pc, #204]	; (b28 <usart_init+0x324>)
     a5c:	4798      	blx	r3
     a5e:	1c43      	adds	r3, r0, #1
     a60:	d005      	beq.n	a6e <usart_init+0x26a>
     a62:	7030      	strb	r0, [r6, #0]
     a64:	0c00      	lsrs	r0, r0, #16
     a66:	b2c0      	uxtb	r0, r0
     a68:	1c31      	adds	r1, r6, #0
     a6a:	4b30      	ldr	r3, [pc, #192]	; (b2c <usart_init+0x328>)
     a6c:	4798      	blx	r3
     a6e:	3701      	adds	r7, #1
     a70:	2f04      	cmp	r7, #4
     a72:	d1eb      	bne.n	a4c <usart_init+0x248>
     a74:	2300      	movs	r3, #0
     a76:	60eb      	str	r3, [r5, #12]
     a78:	612b      	str	r3, [r5, #16]
     a7a:	616b      	str	r3, [r5, #20]
     a7c:	61ab      	str	r3, [r5, #24]
     a7e:	61eb      	str	r3, [r5, #28]
     a80:	622b      	str	r3, [r5, #32]
     a82:	62ab      	str	r3, [r5, #40]	; 0x28
     a84:	626b      	str	r3, [r5, #36]	; 0x24
     a86:	2200      	movs	r2, #0
     a88:	85eb      	strh	r3, [r5, #46]	; 0x2e
     a8a:	85ab      	strh	r3, [r5, #44]	; 0x2c
     a8c:	3330      	adds	r3, #48	; 0x30
     a8e:	54ea      	strb	r2, [r5, r3]
     a90:	3301      	adds	r3, #1
     a92:	54ea      	strb	r2, [r5, r3]
     a94:	3301      	adds	r3, #1
     a96:	54ea      	strb	r2, [r5, r3]
     a98:	3301      	adds	r3, #1
     a9a:	54ea      	strb	r2, [r5, r3]
     a9c:	6828      	ldr	r0, [r5, #0]
     a9e:	4b19      	ldr	r3, [pc, #100]	; (b04 <usart_init+0x300>)
     aa0:	4798      	blx	r3
     aa2:	1c04      	adds	r4, r0, #0
     aa4:	4922      	ldr	r1, [pc, #136]	; (b30 <usart_init+0x32c>)
     aa6:	4b23      	ldr	r3, [pc, #140]	; (b34 <usart_init+0x330>)
     aa8:	4798      	blx	r3
     aaa:	00a4      	lsls	r4, r4, #2
     aac:	4b22      	ldr	r3, [pc, #136]	; (b38 <usart_init+0x334>)
     aae:	50e5      	str	r5, [r4, r3]
     ab0:	2300      	movs	r3, #0
     ab2:	e01e      	b.n	af2 <usart_init+0x2ee>
     ab4:	2310      	movs	r3, #16
     ab6:	4698      	mov	r8, r3
     ab8:	2300      	movs	r3, #0
     aba:	9307      	str	r3, [sp, #28]
     abc:	e003      	b.n	ac6 <usart_init+0x2c2>
     abe:	2303      	movs	r3, #3
     ac0:	4698      	mov	r8, r3
     ac2:	2300      	movs	r3, #0
     ac4:	9307      	str	r3, [sp, #28]
     ac6:	6833      	ldr	r3, [r6, #0]
     ac8:	469b      	mov	fp, r3
     aca:	68f3      	ldr	r3, [r6, #12]
     acc:	9302      	str	r3, [sp, #8]
     ace:	6973      	ldr	r3, [r6, #20]
     ad0:	9303      	str	r3, [sp, #12]
     ad2:	7e33      	ldrb	r3, [r6, #24]
     ad4:	9304      	str	r3, [sp, #16]
     ad6:	2326      	movs	r3, #38	; 0x26
     ad8:	5cf3      	ldrb	r3, [r6, r3]
     ada:	9305      	str	r3, [sp, #20]
     adc:	6872      	ldr	r2, [r6, #4]
     ade:	9206      	str	r2, [sp, #24]
     ae0:	2a00      	cmp	r2, #0
     ae2:	d100      	bne.n	ae6 <usart_init+0x2e2>
     ae4:	e71f      	b.n	926 <usart_init+0x122>
     ae6:	2380      	movs	r3, #128	; 0x80
     ae8:	055b      	lsls	r3, r3, #21
     aea:	429a      	cmp	r2, r3
     aec:	d100      	bne.n	af0 <usart_init+0x2ec>
     aee:	e704      	b.n	8fa <usart_init+0xf6>
     af0:	e73e      	b.n	970 <usart_init+0x16c>
     af2:	1c18      	adds	r0, r3, #0
     af4:	b011      	add	sp, #68	; 0x44
     af6:	bc3c      	pop	{r2, r3, r4, r5}
     af8:	4690      	mov	r8, r2
     afa:	4699      	mov	r9, r3
     afc:	46a2      	mov	sl, r4
     afe:	46ab      	mov	fp, r5
     b00:	bdf0      	pop	{r4, r5, r6, r7, pc}
     b02:	46c0      	nop			; (mov r8, r8)
     b04:	00000541 	.word	0x00000541
     b08:	40000400 	.word	0x40000400
     b0c:	000017a9 	.word	0x000017a9
     b10:	0000171d 	.word	0x0000171d
     b14:	0000036d 	.word	0x0000036d
     b18:	000017c5 	.word	0x000017c5
     b1c:	0000017d 	.word	0x0000017d
     b20:	000001a5 	.word	0x000001a5
     b24:	41002000 	.word	0x41002000
     b28:	000003b9 	.word	0x000003b9
     b2c:	000018a1 	.word	0x000018a1
     b30:	00000c81 	.word	0x00000c81
     b34:	00000e25 	.word	0x00000e25
     b38:	200001b4 	.word	0x200001b4

00000b3c <usart_write_wait>:
     b3c:	b510      	push	{r4, lr}
     b3e:	6803      	ldr	r3, [r0, #0]
     b40:	79c4      	ldrb	r4, [r0, #7]
     b42:	221c      	movs	r2, #28
     b44:	2c00      	cmp	r4, #0
     b46:	d00d      	beq.n	b64 <usart_write_wait+0x28>
     b48:	8dc0      	ldrh	r0, [r0, #46]	; 0x2e
     b4a:	b280      	uxth	r0, r0
     b4c:	3a17      	subs	r2, #23
     b4e:	2800      	cmp	r0, #0
     b50:	d108      	bne.n	b64 <usart_write_wait+0x28>
     b52:	69da      	ldr	r2, [r3, #28]
     b54:	2a00      	cmp	r2, #0
     b56:	d1fc      	bne.n	b52 <usart_write_wait+0x16>
     b58:	8519      	strh	r1, [r3, #40]	; 0x28
     b5a:	2102      	movs	r1, #2
     b5c:	7e1a      	ldrb	r2, [r3, #24]
     b5e:	420a      	tst	r2, r1
     b60:	d0fc      	beq.n	b5c <usart_write_wait+0x20>
     b62:	2200      	movs	r2, #0
     b64:	1c10      	adds	r0, r2, #0
     b66:	bd10      	pop	{r4, pc}

00000b68 <usart_read_wait>:
     b68:	b510      	push	{r4, lr}
     b6a:	6804      	ldr	r4, [r0, #0]
     b6c:	7982      	ldrb	r2, [r0, #6]
     b6e:	231c      	movs	r3, #28
     b70:	2a00      	cmp	r2, #0
     b72:	d033      	beq.n	bdc <usart_read_wait+0x74>
     b74:	8d82      	ldrh	r2, [r0, #44]	; 0x2c
     b76:	b292      	uxth	r2, r2
     b78:	3b17      	subs	r3, #23
     b7a:	2a00      	cmp	r2, #0
     b7c:	d12e      	bne.n	bdc <usart_read_wait+0x74>
     b7e:	7e22      	ldrb	r2, [r4, #24]
     b80:	0752      	lsls	r2, r2, #29
     b82:	d52b      	bpl.n	bdc <usart_read_wait+0x74>
     b84:	69e3      	ldr	r3, [r4, #28]
     b86:	2b00      	cmp	r3, #0
     b88:	d1fc      	bne.n	b84 <usart_read_wait+0x1c>
     b8a:	8b63      	ldrh	r3, [r4, #26]
     b8c:	b2db      	uxtb	r3, r3
     b8e:	069a      	lsls	r2, r3, #26
     b90:	d021      	beq.n	bd6 <usart_read_wait+0x6e>
     b92:	079a      	lsls	r2, r3, #30
     b94:	d503      	bpl.n	b9e <usart_read_wait+0x36>
     b96:	2302      	movs	r3, #2
     b98:	8363      	strh	r3, [r4, #26]
     b9a:	3318      	adds	r3, #24
     b9c:	e01e      	b.n	bdc <usart_read_wait+0x74>
     b9e:	075a      	lsls	r2, r3, #29
     ba0:	d503      	bpl.n	baa <usart_read_wait+0x42>
     ba2:	2304      	movs	r3, #4
     ba4:	8363      	strh	r3, [r4, #26]
     ba6:	331a      	adds	r3, #26
     ba8:	e018      	b.n	bdc <usart_read_wait+0x74>
     baa:	07da      	lsls	r2, r3, #31
     bac:	d503      	bpl.n	bb6 <usart_read_wait+0x4e>
     bae:	2301      	movs	r3, #1
     bb0:	8363      	strh	r3, [r4, #26]
     bb2:	3312      	adds	r3, #18
     bb4:	e012      	b.n	bdc <usart_read_wait+0x74>
     bb6:	06da      	lsls	r2, r3, #27
     bb8:	d505      	bpl.n	bc6 <usart_read_wait+0x5e>
     bba:	8b62      	ldrh	r2, [r4, #26]
     bbc:	2310      	movs	r3, #16
     bbe:	4313      	orrs	r3, r2
     bc0:	8363      	strh	r3, [r4, #26]
     bc2:	2342      	movs	r3, #66	; 0x42
     bc4:	e00a      	b.n	bdc <usart_read_wait+0x74>
     bc6:	069b      	lsls	r3, r3, #26
     bc8:	d505      	bpl.n	bd6 <usart_read_wait+0x6e>
     bca:	8b62      	ldrh	r2, [r4, #26]
     bcc:	2320      	movs	r3, #32
     bce:	4313      	orrs	r3, r2
     bd0:	8363      	strh	r3, [r4, #26]
     bd2:	2341      	movs	r3, #65	; 0x41
     bd4:	e002      	b.n	bdc <usart_read_wait+0x74>
     bd6:	8d23      	ldrh	r3, [r4, #40]	; 0x28
     bd8:	800b      	strh	r3, [r1, #0]
     bda:	2300      	movs	r3, #0
     bdc:	1c18      	adds	r0, r3, #0
     bde:	bd10      	pop	{r4, pc}

00000be0 <usart_read_buffer_wait>:
     be0:	b5f0      	push	{r4, r5, r6, r7, lr}
     be2:	4657      	mov	r7, sl
     be4:	464e      	mov	r6, r9
     be6:	b4c0      	push	{r6, r7}
     be8:	b083      	sub	sp, #12
     bea:	2317      	movs	r3, #23
     bec:	2a00      	cmp	r2, #0
     bee:	d03c      	beq.n	c6a <usart_read_buffer_wait+0x8a>
     bf0:	7984      	ldrb	r4, [r0, #6]
     bf2:	3305      	adds	r3, #5
     bf4:	2c00      	cmp	r4, #0
     bf6:	d038      	beq.n	c6a <usart_read_buffer_wait+0x8a>
     bf8:	468a      	mov	sl, r1
     bfa:	4681      	mov	r9, r0
     bfc:	6805      	ldr	r5, [r0, #0]
     bfe:	1c17      	adds	r7, r2, #0
     c00:	2600      	movs	r6, #0
     c02:	2404      	movs	r4, #4
     c04:	e02c      	b.n	c60 <usart_read_buffer_wait+0x80>
     c06:	7e2a      	ldrb	r2, [r5, #24]
     c08:	4222      	tst	r2, r4
     c0a:	d104      	bne.n	c16 <usart_read_buffer_wait+0x36>
     c0c:	2b01      	cmp	r3, #1
     c0e:	d023      	beq.n	c58 <usart_read_buffer_wait+0x78>
     c10:	3b01      	subs	r3, #1
     c12:	2b00      	cmp	r3, #0
     c14:	d1f7      	bne.n	c06 <usart_read_buffer_wait+0x26>
     c16:	466b      	mov	r3, sp
     c18:	1d99      	adds	r1, r3, #6
     c1a:	2300      	movs	r3, #0
     c1c:	800b      	strh	r3, [r1, #0]
     c1e:	4648      	mov	r0, r9
     c20:	4b15      	ldr	r3, [pc, #84]	; (c78 <usart_read_buffer_wait+0x98>)
     c22:	4798      	blx	r3
     c24:	2800      	cmp	r0, #0
     c26:	d119      	bne.n	c5c <usart_read_buffer_wait+0x7c>
     c28:	1c73      	adds	r3, r6, #1
     c2a:	b299      	uxth	r1, r3
     c2c:	466b      	mov	r3, sp
     c2e:	3306      	adds	r3, #6
     c30:	881b      	ldrh	r3, [r3, #0]
     c32:	4652      	mov	r2, sl
     c34:	5593      	strb	r3, [r2, r6]
     c36:	464a      	mov	r2, r9
     c38:	7952      	ldrb	r2, [r2, #5]
     c3a:	2a01      	cmp	r2, #1
     c3c:	d105      	bne.n	c4a <usart_read_buffer_wait+0x6a>
     c3e:	1cb2      	adds	r2, r6, #2
     c40:	b296      	uxth	r6, r2
     c42:	0a1b      	lsrs	r3, r3, #8
     c44:	4652      	mov	r2, sl
     c46:	5453      	strb	r3, [r2, r1]
     c48:	e000      	b.n	c4c <usart_read_buffer_wait+0x6c>
     c4a:	1c0e      	adds	r6, r1, #0
     c4c:	1e7a      	subs	r2, r7, #1
     c4e:	b297      	uxth	r7, r2
     c50:	2f00      	cmp	r7, #0
     c52:	d105      	bne.n	c60 <usart_read_buffer_wait+0x80>
     c54:	2300      	movs	r3, #0
     c56:	e008      	b.n	c6a <usart_read_buffer_wait+0x8a>
     c58:	2312      	movs	r3, #18
     c5a:	e006      	b.n	c6a <usart_read_buffer_wait+0x8a>
     c5c:	1c03      	adds	r3, r0, #0
     c5e:	e004      	b.n	c6a <usart_read_buffer_wait+0x8a>
     c60:	7e2b      	ldrb	r3, [r5, #24]
     c62:	4223      	tst	r3, r4
     c64:	d1d7      	bne.n	c16 <usart_read_buffer_wait+0x36>
     c66:	4b05      	ldr	r3, [pc, #20]	; (c7c <usart_read_buffer_wait+0x9c>)
     c68:	e7cd      	b.n	c06 <usart_read_buffer_wait+0x26>
     c6a:	1c18      	adds	r0, r3, #0
     c6c:	b003      	add	sp, #12
     c6e:	bc0c      	pop	{r2, r3}
     c70:	4691      	mov	r9, r2
     c72:	469a      	mov	sl, r3
     c74:	bdf0      	pop	{r4, r5, r6, r7, pc}
     c76:	46c0      	nop			; (mov r8, r8)
     c78:	00000b69 	.word	0x00000b69
     c7c:	0000ffff 	.word	0x0000ffff

00000c80 <_usart_interrupt_handler>:
     c80:	b5f8      	push	{r3, r4, r5, r6, r7, lr}
     c82:	0080      	lsls	r0, r0, #2
     c84:	4b65      	ldr	r3, [pc, #404]	; (e1c <_usart_interrupt_handler+0x19c>)
     c86:	58c5      	ldr	r5, [r0, r3]
     c88:	682c      	ldr	r4, [r5, #0]
     c8a:	69e3      	ldr	r3, [r4, #28]
     c8c:	2b00      	cmp	r3, #0
     c8e:	d1fc      	bne.n	c8a <_usart_interrupt_handler+0xa>
     c90:	7e23      	ldrb	r3, [r4, #24]
     c92:	7da6      	ldrb	r6, [r4, #22]
     c94:	401e      	ands	r6, r3
     c96:	2331      	movs	r3, #49	; 0x31
     c98:	5ceb      	ldrb	r3, [r5, r3]
     c9a:	2230      	movs	r2, #48	; 0x30
     c9c:	5caf      	ldrb	r7, [r5, r2]
     c9e:	401f      	ands	r7, r3
     ca0:	07f3      	lsls	r3, r6, #31
     ca2:	d522      	bpl.n	cea <_usart_interrupt_handler+0x6a>
     ca4:	8deb      	ldrh	r3, [r5, #46]	; 0x2e
     ca6:	b29b      	uxth	r3, r3
     ca8:	2b00      	cmp	r3, #0
     caa:	d01c      	beq.n	ce6 <_usart_interrupt_handler+0x66>
     cac:	6aaa      	ldr	r2, [r5, #40]	; 0x28
     cae:	7813      	ldrb	r3, [r2, #0]
     cb0:	b2db      	uxtb	r3, r3
     cb2:	1c51      	adds	r1, r2, #1
     cb4:	62a9      	str	r1, [r5, #40]	; 0x28
     cb6:	7969      	ldrb	r1, [r5, #5]
     cb8:	2901      	cmp	r1, #1
     cba:	d001      	beq.n	cc0 <_usart_interrupt_handler+0x40>
     cbc:	b29b      	uxth	r3, r3
     cbe:	e004      	b.n	cca <_usart_interrupt_handler+0x4a>
     cc0:	7851      	ldrb	r1, [r2, #1]
     cc2:	0209      	lsls	r1, r1, #8
     cc4:	430b      	orrs	r3, r1
     cc6:	3202      	adds	r2, #2
     cc8:	62aa      	str	r2, [r5, #40]	; 0x28
     cca:	05db      	lsls	r3, r3, #23
     ccc:	0ddb      	lsrs	r3, r3, #23
     cce:	8523      	strh	r3, [r4, #40]	; 0x28
     cd0:	8deb      	ldrh	r3, [r5, #46]	; 0x2e
     cd2:	3b01      	subs	r3, #1
     cd4:	b29b      	uxth	r3, r3
     cd6:	85eb      	strh	r3, [r5, #46]	; 0x2e
     cd8:	2b00      	cmp	r3, #0
     cda:	d106      	bne.n	cea <_usart_interrupt_handler+0x6a>
     cdc:	3301      	adds	r3, #1
     cde:	7523      	strb	r3, [r4, #20]
     ce0:	3301      	adds	r3, #1
     ce2:	75a3      	strb	r3, [r4, #22]
     ce4:	e001      	b.n	cea <_usart_interrupt_handler+0x6a>
     ce6:	2301      	movs	r3, #1
     ce8:	7523      	strb	r3, [r4, #20]
     cea:	07b3      	lsls	r3, r6, #30
     cec:	d509      	bpl.n	d02 <_usart_interrupt_handler+0x82>
     cee:	2302      	movs	r3, #2
     cf0:	7523      	strb	r3, [r4, #20]
     cf2:	2200      	movs	r2, #0
     cf4:	3331      	adds	r3, #49	; 0x31
     cf6:	54ea      	strb	r2, [r5, r3]
     cf8:	07fb      	lsls	r3, r7, #31
     cfa:	d502      	bpl.n	d02 <_usart_interrupt_handler+0x82>
     cfc:	1c28      	adds	r0, r5, #0
     cfe:	68eb      	ldr	r3, [r5, #12]
     d00:	4798      	blx	r3
     d02:	0773      	lsls	r3, r6, #29
     d04:	d56a      	bpl.n	ddc <_usart_interrupt_handler+0x15c>
     d06:	8dab      	ldrh	r3, [r5, #44]	; 0x2c
     d08:	b29b      	uxth	r3, r3
     d0a:	2b00      	cmp	r3, #0
     d0c:	d064      	beq.n	dd8 <_usart_interrupt_handler+0x158>
     d0e:	8b63      	ldrh	r3, [r4, #26]
     d10:	b2db      	uxtb	r3, r3
     d12:	071a      	lsls	r2, r3, #28
     d14:	d402      	bmi.n	d1c <_usart_interrupt_handler+0x9c>
     d16:	223f      	movs	r2, #63	; 0x3f
     d18:	4013      	ands	r3, r2
     d1a:	e001      	b.n	d20 <_usart_interrupt_handler+0xa0>
     d1c:	2237      	movs	r2, #55	; 0x37
     d1e:	4013      	ands	r3, r2
     d20:	2b00      	cmp	r3, #0
     d22:	d037      	beq.n	d94 <_usart_interrupt_handler+0x114>
     d24:	079a      	lsls	r2, r3, #30
     d26:	d507      	bpl.n	d38 <_usart_interrupt_handler+0xb8>
     d28:	221a      	movs	r2, #26
     d2a:	2332      	movs	r3, #50	; 0x32
     d2c:	54ea      	strb	r2, [r5, r3]
     d2e:	8b62      	ldrh	r2, [r4, #26]
     d30:	3b30      	subs	r3, #48	; 0x30
     d32:	4313      	orrs	r3, r2
     d34:	8363      	strh	r3, [r4, #26]
     d36:	e027      	b.n	d88 <_usart_interrupt_handler+0x108>
     d38:	075a      	lsls	r2, r3, #29
     d3a:	d507      	bpl.n	d4c <_usart_interrupt_handler+0xcc>
     d3c:	221e      	movs	r2, #30
     d3e:	2332      	movs	r3, #50	; 0x32
     d40:	54ea      	strb	r2, [r5, r3]
     d42:	8b62      	ldrh	r2, [r4, #26]
     d44:	3b2e      	subs	r3, #46	; 0x2e
     d46:	4313      	orrs	r3, r2
     d48:	8363      	strh	r3, [r4, #26]
     d4a:	e01d      	b.n	d88 <_usart_interrupt_handler+0x108>
     d4c:	07da      	lsls	r2, r3, #31
     d4e:	d507      	bpl.n	d60 <_usart_interrupt_handler+0xe0>
     d50:	2213      	movs	r2, #19
     d52:	2332      	movs	r3, #50	; 0x32
     d54:	54ea      	strb	r2, [r5, r3]
     d56:	8b62      	ldrh	r2, [r4, #26]
     d58:	3b31      	subs	r3, #49	; 0x31
     d5a:	4313      	orrs	r3, r2
     d5c:	8363      	strh	r3, [r4, #26]
     d5e:	e013      	b.n	d88 <_usart_interrupt_handler+0x108>
     d60:	06da      	lsls	r2, r3, #27
     d62:	d507      	bpl.n	d74 <_usart_interrupt_handler+0xf4>
     d64:	2242      	movs	r2, #66	; 0x42
     d66:	2332      	movs	r3, #50	; 0x32
     d68:	54ea      	strb	r2, [r5, r3]
     d6a:	8b62      	ldrh	r2, [r4, #26]
     d6c:	3b22      	subs	r3, #34	; 0x22
     d6e:	4313      	orrs	r3, r2
     d70:	8363      	strh	r3, [r4, #26]
     d72:	e009      	b.n	d88 <_usart_interrupt_handler+0x108>
     d74:	2220      	movs	r2, #32
     d76:	421a      	tst	r2, r3
     d78:	d006      	beq.n	d88 <_usart_interrupt_handler+0x108>
     d7a:	3221      	adds	r2, #33	; 0x21
     d7c:	2332      	movs	r3, #50	; 0x32
     d7e:	54ea      	strb	r2, [r5, r3]
     d80:	8b62      	ldrh	r2, [r4, #26]
     d82:	3b12      	subs	r3, #18
     d84:	4313      	orrs	r3, r2
     d86:	8363      	strh	r3, [r4, #26]
     d88:	077b      	lsls	r3, r7, #29
     d8a:	d527      	bpl.n	ddc <_usart_interrupt_handler+0x15c>
     d8c:	1c28      	adds	r0, r5, #0
     d8e:	696b      	ldr	r3, [r5, #20]
     d90:	4798      	blx	r3
     d92:	e023      	b.n	ddc <_usart_interrupt_handler+0x15c>
     d94:	8d23      	ldrh	r3, [r4, #40]	; 0x28
     d96:	05db      	lsls	r3, r3, #23
     d98:	0ddb      	lsrs	r3, r3, #23
     d9a:	b2da      	uxtb	r2, r3
     d9c:	6a69      	ldr	r1, [r5, #36]	; 0x24
     d9e:	700a      	strb	r2, [r1, #0]
     da0:	6a6a      	ldr	r2, [r5, #36]	; 0x24
     da2:	1c51      	adds	r1, r2, #1
     da4:	6269      	str	r1, [r5, #36]	; 0x24
     da6:	7969      	ldrb	r1, [r5, #5]
     da8:	2901      	cmp	r1, #1
     daa:	d104      	bne.n	db6 <_usart_interrupt_handler+0x136>
     dac:	0a1b      	lsrs	r3, r3, #8
     dae:	7053      	strb	r3, [r2, #1]
     db0:	6a6b      	ldr	r3, [r5, #36]	; 0x24
     db2:	3301      	adds	r3, #1
     db4:	626b      	str	r3, [r5, #36]	; 0x24
     db6:	8dab      	ldrh	r3, [r5, #44]	; 0x2c
     db8:	3b01      	subs	r3, #1
     dba:	b29b      	uxth	r3, r3
     dbc:	85ab      	strh	r3, [r5, #44]	; 0x2c
     dbe:	2b00      	cmp	r3, #0
     dc0:	d10c      	bne.n	ddc <_usart_interrupt_handler+0x15c>
     dc2:	3304      	adds	r3, #4
     dc4:	7523      	strb	r3, [r4, #20]
     dc6:	2200      	movs	r2, #0
     dc8:	332e      	adds	r3, #46	; 0x2e
     dca:	54ea      	strb	r2, [r5, r3]
     dcc:	07bb      	lsls	r3, r7, #30
     dce:	d505      	bpl.n	ddc <_usart_interrupt_handler+0x15c>
     dd0:	1c28      	adds	r0, r5, #0
     dd2:	692b      	ldr	r3, [r5, #16]
     dd4:	4798      	blx	r3
     dd6:	e001      	b.n	ddc <_usart_interrupt_handler+0x15c>
     dd8:	2304      	movs	r3, #4
     dda:	7523      	strb	r3, [r4, #20]
     ddc:	06f3      	lsls	r3, r6, #27
     dde:	d507      	bpl.n	df0 <_usart_interrupt_handler+0x170>
     de0:	2310      	movs	r3, #16
     de2:	7523      	strb	r3, [r4, #20]
     de4:	7623      	strb	r3, [r4, #24]
     de6:	06fb      	lsls	r3, r7, #27
     de8:	d502      	bpl.n	df0 <_usart_interrupt_handler+0x170>
     dea:	1c28      	adds	r0, r5, #0
     dec:	69eb      	ldr	r3, [r5, #28]
     dee:	4798      	blx	r3
     df0:	06b3      	lsls	r3, r6, #26
     df2:	d507      	bpl.n	e04 <_usart_interrupt_handler+0x184>
     df4:	2320      	movs	r3, #32
     df6:	7523      	strb	r3, [r4, #20]
     df8:	7623      	strb	r3, [r4, #24]
     dfa:	073b      	lsls	r3, r7, #28
     dfc:	d502      	bpl.n	e04 <_usart_interrupt_handler+0x184>
     dfe:	1c28      	adds	r0, r5, #0
     e00:	69ab      	ldr	r3, [r5, #24]
     e02:	4798      	blx	r3
     e04:	0733      	lsls	r3, r6, #28
     e06:	d507      	bpl.n	e18 <_usart_interrupt_handler+0x198>
     e08:	2308      	movs	r3, #8
     e0a:	7523      	strb	r3, [r4, #20]
     e0c:	7623      	strb	r3, [r4, #24]
     e0e:	06bb      	lsls	r3, r7, #26
     e10:	d502      	bpl.n	e18 <_usart_interrupt_handler+0x198>
     e12:	6a2b      	ldr	r3, [r5, #32]
     e14:	1c28      	adds	r0, r5, #0
     e16:	4798      	blx	r3
     e18:	bdf8      	pop	{r3, r4, r5, r6, r7, pc}
     e1a:	46c0      	nop			; (mov r8, r8)
     e1c:	200001b4 	.word	0x200001b4

00000e20 <_sercom_default_handler>:
     e20:	4770      	bx	lr
     e22:	46c0      	nop			; (mov r8, r8)

00000e24 <_sercom_set_handler>:
     e24:	b5f0      	push	{r4, r5, r6, r7, lr}
     e26:	4b0a      	ldr	r3, [pc, #40]	; (e50 <_sercom_set_handler+0x2c>)
     e28:	781b      	ldrb	r3, [r3, #0]
     e2a:	2b00      	cmp	r3, #0
     e2c:	d10c      	bne.n	e48 <_sercom_set_handler+0x24>
     e2e:	4f09      	ldr	r7, [pc, #36]	; (e54 <_sercom_set_handler+0x30>)
     e30:	4e09      	ldr	r6, [pc, #36]	; (e58 <_sercom_set_handler+0x34>)
     e32:	4d0a      	ldr	r5, [pc, #40]	; (e5c <_sercom_set_handler+0x38>)
     e34:	2400      	movs	r4, #0
     e36:	51de      	str	r6, [r3, r7]
     e38:	195a      	adds	r2, r3, r5
     e3a:	6014      	str	r4, [r2, #0]
     e3c:	3304      	adds	r3, #4
     e3e:	2b18      	cmp	r3, #24
     e40:	d1f9      	bne.n	e36 <_sercom_set_handler+0x12>
     e42:	2201      	movs	r2, #1
     e44:	4b02      	ldr	r3, [pc, #8]	; (e50 <_sercom_set_handler+0x2c>)
     e46:	701a      	strb	r2, [r3, #0]
     e48:	0080      	lsls	r0, r0, #2
     e4a:	4b02      	ldr	r3, [pc, #8]	; (e54 <_sercom_set_handler+0x30>)
     e4c:	50c1      	str	r1, [r0, r3]
     e4e:	bdf0      	pop	{r4, r5, r6, r7, pc}
     e50:	20000161 	.word	0x20000161
     e54:	20000164 	.word	0x20000164
     e58:	00000e21 	.word	0x00000e21
     e5c:	200001b4 	.word	0x200001b4

00000e60 <_sercom_get_interrupt_vector>:
     e60:	b510      	push	{r4, lr}
     e62:	b082      	sub	sp, #8
     e64:	1c04      	adds	r4, r0, #0
     e66:	4668      	mov	r0, sp
     e68:	4905      	ldr	r1, [pc, #20]	; (e80 <_sercom_get_interrupt_vector+0x20>)
     e6a:	2206      	movs	r2, #6
     e6c:	4b05      	ldr	r3, [pc, #20]	; (e84 <_sercom_get_interrupt_vector+0x24>)
     e6e:	4798      	blx	r3
     e70:	1c20      	adds	r0, r4, #0
     e72:	4b05      	ldr	r3, [pc, #20]	; (e88 <_sercom_get_interrupt_vector+0x28>)
     e74:	4798      	blx	r3
     e76:	466b      	mov	r3, sp
     e78:	5618      	ldrsb	r0, [r3, r0]
     e7a:	b002      	add	sp, #8
     e7c:	bd10      	pop	{r4, pc}
     e7e:	46c0      	nop			; (mov r8, r8)
     e80:	00002c98 	.word	0x00002c98
     e84:	00001d41 	.word	0x00001d41
     e88:	00000541 	.word	0x00000541

00000e8c <SERCOM0_Handler>:
     e8c:	b508      	push	{r3, lr}
     e8e:	4b02      	ldr	r3, [pc, #8]	; (e98 <SERCOM0_Handler+0xc>)
     e90:	681b      	ldr	r3, [r3, #0]
     e92:	2000      	movs	r0, #0
     e94:	4798      	blx	r3
     e96:	bd08      	pop	{r3, pc}
     e98:	20000164 	.word	0x20000164

00000e9c <SERCOM1_Handler>:
     e9c:	b508      	push	{r3, lr}
     e9e:	4b02      	ldr	r3, [pc, #8]	; (ea8 <SERCOM1_Handler+0xc>)
     ea0:	685b      	ldr	r3, [r3, #4]
     ea2:	2001      	movs	r0, #1
     ea4:	4798      	blx	r3
     ea6:	bd08      	pop	{r3, pc}
     ea8:	20000164 	.word	0x20000164

00000eac <SERCOM2_Handler>:
     eac:	b508      	push	{r3, lr}
     eae:	4b02      	ldr	r3, [pc, #8]	; (eb8 <SERCOM2_Handler+0xc>)
     eb0:	689b      	ldr	r3, [r3, #8]
     eb2:	2002      	movs	r0, #2
     eb4:	4798      	blx	r3
     eb6:	bd08      	pop	{r3, pc}
     eb8:	20000164 	.word	0x20000164

00000ebc <SERCOM3_Handler>:
     ebc:	b508      	push	{r3, lr}
     ebe:	4b02      	ldr	r3, [pc, #8]	; (ec8 <SERCOM3_Handler+0xc>)
     ec0:	68db      	ldr	r3, [r3, #12]
     ec2:	2003      	movs	r0, #3
     ec4:	4798      	blx	r3
     ec6:	bd08      	pop	{r3, pc}
     ec8:	20000164 	.word	0x20000164

00000ecc <SERCOM4_Handler>:
     ecc:	b508      	push	{r3, lr}
     ece:	4b02      	ldr	r3, [pc, #8]	; (ed8 <SERCOM4_Handler+0xc>)
     ed0:	691b      	ldr	r3, [r3, #16]
     ed2:	2004      	movs	r0, #4
     ed4:	4798      	blx	r3
     ed6:	bd08      	pop	{r3, pc}
     ed8:	20000164 	.word	0x20000164

00000edc <SERCOM5_Handler>:
     edc:	b508      	push	{r3, lr}
     ede:	4b02      	ldr	r3, [pc, #8]	; (ee8 <SERCOM5_Handler+0xc>)
     ee0:	695b      	ldr	r3, [r3, #20]
     ee2:	2005      	movs	r0, #5
     ee4:	4798      	blx	r3
     ee6:	bd08      	pop	{r3, pc}
     ee8:	20000164 	.word	0x20000164

00000eec <_tcc_interrupt_handler>:
     eec:	b5f0      	push	{r4, r5, r6, r7, lr}
     eee:	4647      	mov	r7, r8
     ef0:	b480      	push	{r7}
     ef2:	0080      	lsls	r0, r0, #2
     ef4:	4b0d      	ldr	r3, [pc, #52]	; (f2c <_tcc_interrupt_handler+0x40>)
     ef6:	58c7      	ldr	r7, [r0, r3]
     ef8:	683b      	ldr	r3, [r7, #0]
     efa:	6ade      	ldr	r6, [r3, #44]	; 0x2c
     efc:	6b7b      	ldr	r3, [r7, #52]	; 0x34
     efe:	401e      	ands	r6, r3
     f00:	6bbb      	ldr	r3, [r7, #56]	; 0x38
     f02:	401e      	ands	r6, r3
     f04:	2400      	movs	r4, #0
     f06:	4b0a      	ldr	r3, [pc, #40]	; (f30 <_tcc_interrupt_handler+0x44>)
     f08:	4698      	mov	r8, r3
     f0a:	4643      	mov	r3, r8
     f0c:	58e5      	ldr	r5, [r4, r3]
     f0e:	422e      	tst	r6, r5
     f10:	d005      	beq.n	f1e <_tcc_interrupt_handler+0x32>
     f12:	193b      	adds	r3, r7, r4
     f14:	685b      	ldr	r3, [r3, #4]
     f16:	1c38      	adds	r0, r7, #0
     f18:	4798      	blx	r3
     f1a:	683b      	ldr	r3, [r7, #0]
     f1c:	62dd      	str	r5, [r3, #44]	; 0x2c
     f1e:	3404      	adds	r4, #4
     f20:	2c30      	cmp	r4, #48	; 0x30
     f22:	d1f2      	bne.n	f0a <_tcc_interrupt_handler+0x1e>
     f24:	bc04      	pop	{r2}
     f26:	4690      	mov	r8, r2
     f28:	bdf0      	pop	{r4, r5, r6, r7, pc}
     f2a:	46c0      	nop			; (mov r8, r8)
     f2c:	200001cc 	.word	0x200001cc
     f30:	00002ca0 	.word	0x00002ca0

00000f34 <TCC0_Handler>:
     f34:	b508      	push	{r3, lr}
     f36:	2000      	movs	r0, #0
     f38:	4b01      	ldr	r3, [pc, #4]	; (f40 <TCC0_Handler+0xc>)
     f3a:	4798      	blx	r3
     f3c:	bd08      	pop	{r3, pc}
     f3e:	46c0      	nop			; (mov r8, r8)
     f40:	00000eed 	.word	0x00000eed

00000f44 <TCC1_Handler>:
     f44:	b508      	push	{r3, lr}
     f46:	2001      	movs	r0, #1
     f48:	4b01      	ldr	r3, [pc, #4]	; (f50 <TCC1_Handler+0xc>)
     f4a:	4798      	blx	r3
     f4c:	bd08      	pop	{r3, pc}
     f4e:	46c0      	nop			; (mov r8, r8)
     f50:	00000eed 	.word	0x00000eed

00000f54 <TCC2_Handler>:
     f54:	b508      	push	{r3, lr}
     f56:	2002      	movs	r0, #2
     f58:	4b01      	ldr	r3, [pc, #4]	; (f60 <TCC2_Handler+0xc>)
     f5a:	4798      	blx	r3
     f5c:	bd08      	pop	{r3, pc}
     f5e:	46c0      	nop			; (mov r8, r8)
     f60:	00000eed 	.word	0x00000eed

00000f64 <cpu_irq_enter_critical>:
     f64:	4b0c      	ldr	r3, [pc, #48]	; (f98 <cpu_irq_enter_critical+0x34>)
     f66:	681b      	ldr	r3, [r3, #0]
     f68:	2b00      	cmp	r3, #0
     f6a:	d110      	bne.n	f8e <cpu_irq_enter_critical+0x2a>
     f6c:	f3ef 8310 	mrs	r3, PRIMASK
     f70:	2b00      	cmp	r3, #0
     f72:	d109      	bne.n	f88 <cpu_irq_enter_critical+0x24>
     f74:	b672      	cpsid	i
     f76:	f3bf 8f5f 	dmb	sy
     f7a:	2200      	movs	r2, #0
     f7c:	4b07      	ldr	r3, [pc, #28]	; (f9c <cpu_irq_enter_critical+0x38>)
     f7e:	701a      	strb	r2, [r3, #0]
     f80:	3201      	adds	r2, #1
     f82:	4b07      	ldr	r3, [pc, #28]	; (fa0 <cpu_irq_enter_critical+0x3c>)
     f84:	701a      	strb	r2, [r3, #0]
     f86:	e002      	b.n	f8e <cpu_irq_enter_critical+0x2a>
     f88:	2200      	movs	r2, #0
     f8a:	4b05      	ldr	r3, [pc, #20]	; (fa0 <cpu_irq_enter_critical+0x3c>)
     f8c:	701a      	strb	r2, [r3, #0]
     f8e:	4a02      	ldr	r2, [pc, #8]	; (f98 <cpu_irq_enter_critical+0x34>)
     f90:	6813      	ldr	r3, [r2, #0]
     f92:	3301      	adds	r3, #1
     f94:	6013      	str	r3, [r2, #0]
     f96:	4770      	bx	lr
     f98:	2000017c 	.word	0x2000017c
     f9c:	20000008 	.word	0x20000008
     fa0:	20000180 	.word	0x20000180

00000fa4 <cpu_irq_leave_critical>:
     fa4:	4b08      	ldr	r3, [pc, #32]	; (fc8 <cpu_irq_leave_critical+0x24>)
     fa6:	681a      	ldr	r2, [r3, #0]
     fa8:	3a01      	subs	r2, #1
     faa:	601a      	str	r2, [r3, #0]
     fac:	681b      	ldr	r3, [r3, #0]
     fae:	2b00      	cmp	r3, #0
     fb0:	d109      	bne.n	fc6 <cpu_irq_leave_critical+0x22>
     fb2:	4b06      	ldr	r3, [pc, #24]	; (fcc <cpu_irq_leave_critical+0x28>)
     fb4:	781b      	ldrb	r3, [r3, #0]
     fb6:	2b00      	cmp	r3, #0
     fb8:	d005      	beq.n	fc6 <cpu_irq_leave_critical+0x22>
     fba:	2201      	movs	r2, #1
     fbc:	4b04      	ldr	r3, [pc, #16]	; (fd0 <cpu_irq_leave_critical+0x2c>)
     fbe:	701a      	strb	r2, [r3, #0]
     fc0:	f3bf 8f5f 	dmb	sy
     fc4:	b662      	cpsie	i
     fc6:	4770      	bx	lr
     fc8:	2000017c 	.word	0x2000017c
     fcc:	20000180 	.word	0x20000180
     fd0:	20000008 	.word	0x20000008

00000fd4 <system_board_init>:
     fd4:	b5f0      	push	{r4, r5, r6, r7, lr}
     fd6:	4647      	mov	r7, r8
     fd8:	b480      	push	{r7}
     fda:	b082      	sub	sp, #8
     fdc:	ac01      	add	r4, sp, #4
     fde:	2601      	movs	r6, #1
     fe0:	7066      	strb	r6, [r4, #1]
     fe2:	2700      	movs	r7, #0
     fe4:	70a7      	strb	r7, [r4, #2]
     fe6:	7026      	strb	r6, [r4, #0]
     fe8:	2013      	movs	r0, #19
     fea:	1c21      	adds	r1, r4, #0
     fec:	4d0b      	ldr	r5, [pc, #44]	; (101c <system_board_init+0x48>)
     fee:	47a8      	blx	r5
     ff0:	4b0b      	ldr	r3, [pc, #44]	; (1020 <system_board_init+0x4c>)
     ff2:	4698      	mov	r8, r3
     ff4:	2380      	movs	r3, #128	; 0x80
     ff6:	031b      	lsls	r3, r3, #12
     ff8:	4642      	mov	r2, r8
     ffa:	6193      	str	r3, [r2, #24]
     ffc:	2017      	movs	r0, #23
     ffe:	1c21      	adds	r1, r4, #0
    1000:	47a8      	blx	r5
    1002:	2380      	movs	r3, #128	; 0x80
    1004:	041b      	lsls	r3, r3, #16
    1006:	4642      	mov	r2, r8
    1008:	6153      	str	r3, [r2, #20]
    100a:	7027      	strb	r7, [r4, #0]
    100c:	7066      	strb	r6, [r4, #1]
    100e:	201c      	movs	r0, #28
    1010:	1c21      	adds	r1, r4, #0
    1012:	47a8      	blx	r5
    1014:	b002      	add	sp, #8
    1016:	bc04      	pop	{r2}
    1018:	4690      	mov	r8, r2
    101a:	bdf0      	pop	{r4, r5, r6, r7, pc}
    101c:	00001025 	.word	0x00001025
    1020:	41004400 	.word	0x41004400

00001024 <port_pin_set_config>:
    1024:	b500      	push	{lr}
    1026:	b083      	sub	sp, #12
    1028:	ab01      	add	r3, sp, #4
    102a:	2280      	movs	r2, #128	; 0x80
    102c:	701a      	strb	r2, [r3, #0]
    102e:	780a      	ldrb	r2, [r1, #0]
    1030:	705a      	strb	r2, [r3, #1]
    1032:	784a      	ldrb	r2, [r1, #1]
    1034:	709a      	strb	r2, [r3, #2]
    1036:	788a      	ldrb	r2, [r1, #2]
    1038:	70da      	strb	r2, [r3, #3]
    103a:	1c19      	adds	r1, r3, #0
    103c:	4b01      	ldr	r3, [pc, #4]	; (1044 <port_pin_set_config+0x20>)
    103e:	4798      	blx	r3
    1040:	b003      	add	sp, #12
    1042:	bd00      	pop	{pc}
    1044:	000018a1 	.word	0x000018a1

00001048 <system_clock_source_get_hz>:
    1048:	b508      	push	{r3, lr}
    104a:	2808      	cmp	r0, #8
    104c:	d803      	bhi.n	1056 <system_clock_source_get_hz+0xe>
    104e:	0080      	lsls	r0, r0, #2
    1050:	4b1b      	ldr	r3, [pc, #108]	; (10c0 <system_clock_source_get_hz+0x78>)
    1052:	581b      	ldr	r3, [r3, r0]
    1054:	469f      	mov	pc, r3
    1056:	2000      	movs	r0, #0
    1058:	e031      	b.n	10be <system_clock_source_get_hz+0x76>
    105a:	4b1a      	ldr	r3, [pc, #104]	; (10c4 <system_clock_source_get_hz+0x7c>)
    105c:	6918      	ldr	r0, [r3, #16]
    105e:	e02e      	b.n	10be <system_clock_source_get_hz+0x76>
    1060:	4b19      	ldr	r3, [pc, #100]	; (10c8 <system_clock_source_get_hz+0x80>)
    1062:	6a18      	ldr	r0, [r3, #32]
    1064:	0580      	lsls	r0, r0, #22
    1066:	0f80      	lsrs	r0, r0, #30
    1068:	4b18      	ldr	r3, [pc, #96]	; (10cc <system_clock_source_get_hz+0x84>)
    106a:	40c3      	lsrs	r3, r0
    106c:	1c18      	adds	r0, r3, #0
    106e:	e026      	b.n	10be <system_clock_source_get_hz+0x76>
    1070:	4b14      	ldr	r3, [pc, #80]	; (10c4 <system_clock_source_get_hz+0x7c>)
    1072:	6958      	ldr	r0, [r3, #20]
    1074:	e023      	b.n	10be <system_clock_source_get_hz+0x76>
    1076:	4b13      	ldr	r3, [pc, #76]	; (10c4 <system_clock_source_get_hz+0x7c>)
    1078:	681b      	ldr	r3, [r3, #0]
    107a:	2002      	movs	r0, #2
    107c:	4018      	ands	r0, r3
    107e:	d01e      	beq.n	10be <system_clock_source_get_hz+0x76>
    1080:	4911      	ldr	r1, [pc, #68]	; (10c8 <system_clock_source_get_hz+0x80>)
    1082:	2210      	movs	r2, #16
    1084:	68cb      	ldr	r3, [r1, #12]
    1086:	421a      	tst	r2, r3
    1088:	d0fc      	beq.n	1084 <system_clock_source_get_hz+0x3c>
    108a:	4b0e      	ldr	r3, [pc, #56]	; (10c4 <system_clock_source_get_hz+0x7c>)
    108c:	681b      	ldr	r3, [r3, #0]
    108e:	075b      	lsls	r3, r3, #29
    1090:	d514      	bpl.n	10bc <system_clock_source_get_hz+0x74>
    1092:	2000      	movs	r0, #0
    1094:	4b0e      	ldr	r3, [pc, #56]	; (10d0 <system_clock_source_get_hz+0x88>)
    1096:	4798      	blx	r3
    1098:	4b0a      	ldr	r3, [pc, #40]	; (10c4 <system_clock_source_get_hz+0x7c>)
    109a:	689b      	ldr	r3, [r3, #8]
    109c:	041b      	lsls	r3, r3, #16
    109e:	0c1b      	lsrs	r3, r3, #16
    10a0:	4358      	muls	r0, r3
    10a2:	e00c      	b.n	10be <system_clock_source_get_hz+0x76>
    10a4:	2350      	movs	r3, #80	; 0x50
    10a6:	4a08      	ldr	r2, [pc, #32]	; (10c8 <system_clock_source_get_hz+0x80>)
    10a8:	5cd3      	ldrb	r3, [r2, r3]
    10aa:	2000      	movs	r0, #0
    10ac:	075b      	lsls	r3, r3, #29
    10ae:	d506      	bpl.n	10be <system_clock_source_get_hz+0x76>
    10b0:	4b04      	ldr	r3, [pc, #16]	; (10c4 <system_clock_source_get_hz+0x7c>)
    10b2:	68d8      	ldr	r0, [r3, #12]
    10b4:	e003      	b.n	10be <system_clock_source_get_hz+0x76>
    10b6:	2080      	movs	r0, #128	; 0x80
    10b8:	0200      	lsls	r0, r0, #8
    10ba:	e000      	b.n	10be <system_clock_source_get_hz+0x76>
    10bc:	4805      	ldr	r0, [pc, #20]	; (10d4 <system_clock_source_get_hz+0x8c>)
    10be:	bd08      	pop	{r3, pc}
    10c0:	00002cd0 	.word	0x00002cd0
    10c4:	20000184 	.word	0x20000184
    10c8:	40000800 	.word	0x40000800
    10cc:	007a1200 	.word	0x007a1200
    10d0:	000017c5 	.word	0x000017c5
    10d4:	02dc6c00 	.word	0x02dc6c00

000010d8 <system_clock_source_osc8m_set_config>:
    10d8:	b570      	push	{r4, r5, r6, lr}
    10da:	4c0c      	ldr	r4, [pc, #48]	; (110c <system_clock_source_osc8m_set_config+0x34>)
    10dc:	6a23      	ldr	r3, [r4, #32]
    10de:	7801      	ldrb	r1, [r0, #0]
    10e0:	7885      	ldrb	r5, [r0, #2]
    10e2:	7842      	ldrb	r2, [r0, #1]
    10e4:	2001      	movs	r0, #1
    10e6:	4002      	ands	r2, r0
    10e8:	0192      	lsls	r2, r2, #6
    10ea:	2640      	movs	r6, #64	; 0x40
    10ec:	43b3      	bics	r3, r6
    10ee:	4313      	orrs	r3, r2
    10f0:	1c02      	adds	r2, r0, #0
    10f2:	402a      	ands	r2, r5
    10f4:	01d2      	lsls	r2, r2, #7
    10f6:	307f      	adds	r0, #127	; 0x7f
    10f8:	4383      	bics	r3, r0
    10fa:	4313      	orrs	r3, r2
    10fc:	2203      	movs	r2, #3
    10fe:	400a      	ands	r2, r1
    1100:	0212      	lsls	r2, r2, #8
    1102:	4903      	ldr	r1, [pc, #12]	; (1110 <system_clock_source_osc8m_set_config+0x38>)
    1104:	400b      	ands	r3, r1
    1106:	4313      	orrs	r3, r2
    1108:	6223      	str	r3, [r4, #32]
    110a:	bd70      	pop	{r4, r5, r6, pc}
    110c:	40000800 	.word	0x40000800
    1110:	fffffcff 	.word	0xfffffcff

00001114 <system_clock_source_osc32k_set_config>:
    1114:	b5f0      	push	{r4, r5, r6, r7, lr}
    1116:	4657      	mov	r7, sl
    1118:	464e      	mov	r6, r9
    111a:	4645      	mov	r5, r8
    111c:	b4e0      	push	{r5, r6, r7}
    111e:	4e1c      	ldr	r6, [pc, #112]	; (1190 <system_clock_source_osc32k_set_config+0x7c>)
    1120:	69b3      	ldr	r3, [r6, #24]
    1122:	469c      	mov	ip, r3
    1124:	7841      	ldrb	r1, [r0, #1]
    1126:	7805      	ldrb	r5, [r0, #0]
    1128:	7907      	ldrb	r7, [r0, #4]
    112a:	78c3      	ldrb	r3, [r0, #3]
    112c:	4699      	mov	r9, r3
    112e:	7944      	ldrb	r4, [r0, #5]
    1130:	7883      	ldrb	r3, [r0, #2]
    1132:	2001      	movs	r0, #1
    1134:	4003      	ands	r3, r0
    1136:	009b      	lsls	r3, r3, #2
    1138:	469a      	mov	sl, r3
    113a:	2204      	movs	r2, #4
    113c:	4690      	mov	r8, r2
    113e:	4662      	mov	r2, ip
    1140:	4643      	mov	r3, r8
    1142:	439a      	bics	r2, r3
    1144:	1c13      	adds	r3, r2, #0
    1146:	4652      	mov	r2, sl
    1148:	431a      	orrs	r2, r3
    114a:	1c13      	adds	r3, r2, #0
    114c:	4001      	ands	r1, r0
    114e:	00c9      	lsls	r1, r1, #3
    1150:	2208      	movs	r2, #8
    1152:	4393      	bics	r3, r2
    1154:	430b      	orrs	r3, r1
    1156:	464a      	mov	r2, r9
    1158:	4002      	ands	r2, r0
    115a:	0192      	lsls	r2, r2, #6
    115c:	2140      	movs	r1, #64	; 0x40
    115e:	438b      	bics	r3, r1
    1160:	4313      	orrs	r3, r2
    1162:	4007      	ands	r7, r0
    1164:	01ff      	lsls	r7, r7, #7
    1166:	2280      	movs	r2, #128	; 0x80
    1168:	4393      	bics	r3, r2
    116a:	433b      	orrs	r3, r7
    116c:	3a79      	subs	r2, #121	; 0x79
    116e:	4015      	ands	r5, r2
    1170:	022d      	lsls	r5, r5, #8
    1172:	4f08      	ldr	r7, [pc, #32]	; (1194 <system_clock_source_osc32k_set_config+0x80>)
    1174:	403b      	ands	r3, r7
    1176:	432b      	orrs	r3, r5
    1178:	4004      	ands	r4, r0
    117a:	0320      	lsls	r0, r4, #12
    117c:	4c06      	ldr	r4, [pc, #24]	; (1198 <system_clock_source_osc32k_set_config+0x84>)
    117e:	401c      	ands	r4, r3
    1180:	4304      	orrs	r4, r0
    1182:	61b4      	str	r4, [r6, #24]
    1184:	bc1c      	pop	{r2, r3, r4}
    1186:	4690      	mov	r8, r2
    1188:	4699      	mov	r9, r3
    118a:	46a2      	mov	sl, r4
    118c:	bdf0      	pop	{r4, r5, r6, r7, pc}
    118e:	46c0      	nop			; (mov r8, r8)
    1190:	40000800 	.word	0x40000800
    1194:	fffff8ff 	.word	0xfffff8ff
    1198:	ffffefff 	.word	0xffffefff

0000119c <system_clock_source_xosc32k_set_config>:
    119c:	b5f0      	push	{r4, r5, r6, r7, lr}
    119e:	465f      	mov	r7, fp
    11a0:	4656      	mov	r6, sl
    11a2:	464d      	mov	r5, r9
    11a4:	4644      	mov	r4, r8
    11a6:	b4f0      	push	{r4, r5, r6, r7}
    11a8:	b083      	sub	sp, #12
    11aa:	4e2e      	ldr	r6, [pc, #184]	; (1264 <system_clock_source_xosc32k_set_config+0xc8>)
    11ac:	8ab3      	ldrh	r3, [r6, #20]
    11ae:	469c      	mov	ip, r3
    11b0:	7845      	ldrb	r5, [r0, #1]
    11b2:	7803      	ldrb	r3, [r0, #0]
    11b4:	425a      	negs	r2, r3
    11b6:	415a      	adcs	r2, r3
    11b8:	4691      	mov	r9, r2
    11ba:	7883      	ldrb	r3, [r0, #2]
    11bc:	469b      	mov	fp, r3
    11be:	78c3      	ldrb	r3, [r0, #3]
    11c0:	7902      	ldrb	r2, [r0, #4]
    11c2:	4690      	mov	r8, r2
    11c4:	7b47      	ldrb	r7, [r0, #13]
    11c6:	7b02      	ldrb	r2, [r0, #12]
    11c8:	9201      	str	r2, [sp, #4]
    11ca:	7b84      	ldrb	r4, [r0, #14]
    11cc:	6882      	ldr	r2, [r0, #8]
    11ce:	4826      	ldr	r0, [pc, #152]	; (1268 <system_clock_source_xosc32k_set_config+0xcc>)
    11d0:	6142      	str	r2, [r0, #20]
    11d2:	2001      	movs	r0, #1
    11d4:	464a      	mov	r2, r9
    11d6:	0092      	lsls	r2, r2, #2
    11d8:	4691      	mov	r9, r2
    11da:	2204      	movs	r2, #4
    11dc:	4692      	mov	sl, r2
    11de:	4662      	mov	r2, ip
    11e0:	4651      	mov	r1, sl
    11e2:	438a      	bics	r2, r1
    11e4:	4694      	mov	ip, r2
    11e6:	464a      	mov	r2, r9
    11e8:	4661      	mov	r1, ip
    11ea:	430a      	orrs	r2, r1
    11ec:	4694      	mov	ip, r2
    11ee:	4642      	mov	r2, r8
    11f0:	4002      	ands	r2, r0
    11f2:	00d2      	lsls	r2, r2, #3
    11f4:	4690      	mov	r8, r2
    11f6:	2208      	movs	r2, #8
    11f8:	4691      	mov	r9, r2
    11fa:	4662      	mov	r2, ip
    11fc:	4649      	mov	r1, r9
    11fe:	438a      	bics	r2, r1
    1200:	4694      	mov	ip, r2
    1202:	4642      	mov	r2, r8
    1204:	4661      	mov	r1, ip
    1206:	430a      	orrs	r2, r1
    1208:	4694      	mov	ip, r2
    120a:	4003      	ands	r3, r0
    120c:	011b      	lsls	r3, r3, #4
    120e:	2210      	movs	r2, #16
    1210:	4690      	mov	r8, r2
    1212:	4662      	mov	r2, ip
    1214:	4641      	mov	r1, r8
    1216:	438a      	bics	r2, r1
    1218:	4313      	orrs	r3, r2
    121a:	4659      	mov	r1, fp
    121c:	4001      	ands	r1, r0
    121e:	0149      	lsls	r1, r1, #5
    1220:	2220      	movs	r2, #32
    1222:	4393      	bics	r3, r2
    1224:	430b      	orrs	r3, r1
    1226:	9a01      	ldr	r2, [sp, #4]
    1228:	4002      	ands	r2, r0
    122a:	0192      	lsls	r2, r2, #6
    122c:	2140      	movs	r1, #64	; 0x40
    122e:	438b      	bics	r3, r1
    1230:	4313      	orrs	r3, r2
    1232:	4007      	ands	r7, r0
    1234:	01ff      	lsls	r7, r7, #7
    1236:	2280      	movs	r2, #128	; 0x80
    1238:	4393      	bics	r3, r2
    123a:	433b      	orrs	r3, r7
    123c:	3a79      	subs	r2, #121	; 0x79
    123e:	4015      	ands	r5, r2
    1240:	022d      	lsls	r5, r5, #8
    1242:	4f0a      	ldr	r7, [pc, #40]	; (126c <system_clock_source_xosc32k_set_config+0xd0>)
    1244:	403b      	ands	r3, r7
    1246:	432b      	orrs	r3, r5
    1248:	4004      	ands	r4, r0
    124a:	0320      	lsls	r0, r4, #12
    124c:	4c08      	ldr	r4, [pc, #32]	; (1270 <system_clock_source_xosc32k_set_config+0xd4>)
    124e:	401c      	ands	r4, r3
    1250:	4304      	orrs	r4, r0
    1252:	82b4      	strh	r4, [r6, #20]
    1254:	b003      	add	sp, #12
    1256:	bc3c      	pop	{r2, r3, r4, r5}
    1258:	4690      	mov	r8, r2
    125a:	4699      	mov	r9, r3
    125c:	46a2      	mov	sl, r4
    125e:	46ab      	mov	fp, r5
    1260:	bdf0      	pop	{r4, r5, r6, r7, pc}
    1262:	46c0      	nop			; (mov r8, r8)
    1264:	40000800 	.word	0x40000800
    1268:	20000184 	.word	0x20000184
    126c:	fffff8ff 	.word	0xfffff8ff
    1270:	ffffefff 	.word	0xffffefff

00001274 <system_clock_source_dfll_set_config>:
    1274:	b510      	push	{r4, lr}
    1276:	7a03      	ldrb	r3, [r0, #8]
    1278:	069b      	lsls	r3, r3, #26
    127a:	0c1a      	lsrs	r2, r3, #16
    127c:	8943      	ldrh	r3, [r0, #10]
    127e:	059b      	lsls	r3, r3, #22
    1280:	0d9b      	lsrs	r3, r3, #22
    1282:	4313      	orrs	r3, r2
    1284:	4c19      	ldr	r4, [pc, #100]	; (12ec <system_clock_source_dfll_set_config+0x78>)
    1286:	6063      	str	r3, [r4, #4]
    1288:	8881      	ldrh	r1, [r0, #4]
    128a:	8843      	ldrh	r3, [r0, #2]
    128c:	4319      	orrs	r1, r3
    128e:	79c3      	ldrb	r3, [r0, #7]
    1290:	7982      	ldrb	r2, [r0, #6]
    1292:	4313      	orrs	r3, r2
    1294:	430b      	orrs	r3, r1
    1296:	7842      	ldrb	r2, [r0, #1]
    1298:	01d2      	lsls	r2, r2, #7
    129a:	4313      	orrs	r3, r2
    129c:	6023      	str	r3, [r4, #0]
    129e:	7803      	ldrb	r3, [r0, #0]
    12a0:	2b04      	cmp	r3, #4
    12a2:	d10f      	bne.n	12c4 <system_clock_source_dfll_set_config+0x50>
    12a4:	7b03      	ldrb	r3, [r0, #12]
    12a6:	069b      	lsls	r3, r3, #26
    12a8:	8a02      	ldrh	r2, [r0, #16]
    12aa:	4313      	orrs	r3, r2
    12ac:	1c19      	adds	r1, r3, #0
    12ae:	89c3      	ldrh	r3, [r0, #14]
    12b0:	041b      	lsls	r3, r3, #16
    12b2:	4a0f      	ldr	r2, [pc, #60]	; (12f0 <system_clock_source_dfll_set_config+0x7c>)
    12b4:	4013      	ands	r3, r2
    12b6:	430b      	orrs	r3, r1
    12b8:	60a3      	str	r3, [r4, #8]
    12ba:	6821      	ldr	r1, [r4, #0]
    12bc:	2304      	movs	r3, #4
    12be:	430b      	orrs	r3, r1
    12c0:	6023      	str	r3, [r4, #0]
    12c2:	e011      	b.n	12e8 <system_clock_source_dfll_set_config+0x74>
    12c4:	2b20      	cmp	r3, #32
    12c6:	d10f      	bne.n	12e8 <system_clock_source_dfll_set_config+0x74>
    12c8:	7b03      	ldrb	r3, [r0, #12]
    12ca:	069b      	lsls	r3, r3, #26
    12cc:	8a02      	ldrh	r2, [r0, #16]
    12ce:	4313      	orrs	r3, r2
    12d0:	1c19      	adds	r1, r3, #0
    12d2:	89c3      	ldrh	r3, [r0, #14]
    12d4:	041b      	lsls	r3, r3, #16
    12d6:	4a06      	ldr	r2, [pc, #24]	; (12f0 <system_clock_source_dfll_set_config+0x7c>)
    12d8:	4013      	ands	r3, r2
    12da:	430b      	orrs	r3, r1
    12dc:	4a03      	ldr	r2, [pc, #12]	; (12ec <system_clock_source_dfll_set_config+0x78>)
    12de:	6093      	str	r3, [r2, #8]
    12e0:	6813      	ldr	r3, [r2, #0]
    12e2:	4904      	ldr	r1, [pc, #16]	; (12f4 <system_clock_source_dfll_set_config+0x80>)
    12e4:	430b      	orrs	r3, r1
    12e6:	6013      	str	r3, [r2, #0]
    12e8:	bd10      	pop	{r4, pc}
    12ea:	46c0      	nop			; (mov r8, r8)
    12ec:	20000184 	.word	0x20000184
    12f0:	03ff0000 	.word	0x03ff0000
    12f4:	00000424 	.word	0x00000424

000012f8 <system_clock_source_enable>:
    12f8:	2808      	cmp	r0, #8
    12fa:	d803      	bhi.n	1304 <system_clock_source_enable+0xc>
    12fc:	0080      	lsls	r0, r0, #2
    12fe:	4b25      	ldr	r3, [pc, #148]	; (1394 <system_clock_source_enable+0x9c>)
    1300:	581b      	ldr	r3, [r3, r0]
    1302:	469f      	mov	pc, r3
    1304:	2017      	movs	r0, #23
    1306:	e044      	b.n	1392 <system_clock_source_enable+0x9a>
    1308:	4a23      	ldr	r2, [pc, #140]	; (1398 <system_clock_source_enable+0xa0>)
    130a:	6a11      	ldr	r1, [r2, #32]
    130c:	2302      	movs	r3, #2
    130e:	430b      	orrs	r3, r1
    1310:	6213      	str	r3, [r2, #32]
    1312:	2000      	movs	r0, #0
    1314:	e03d      	b.n	1392 <system_clock_source_enable+0x9a>
    1316:	4a20      	ldr	r2, [pc, #128]	; (1398 <system_clock_source_enable+0xa0>)
    1318:	6991      	ldr	r1, [r2, #24]
    131a:	2302      	movs	r3, #2
    131c:	430b      	orrs	r3, r1
    131e:	6193      	str	r3, [r2, #24]
    1320:	2000      	movs	r0, #0
    1322:	e036      	b.n	1392 <system_clock_source_enable+0x9a>
    1324:	4a1c      	ldr	r2, [pc, #112]	; (1398 <system_clock_source_enable+0xa0>)
    1326:	8a11      	ldrh	r1, [r2, #16]
    1328:	2302      	movs	r3, #2
    132a:	430b      	orrs	r3, r1
    132c:	8213      	strh	r3, [r2, #16]
    132e:	2000      	movs	r0, #0
    1330:	e02f      	b.n	1392 <system_clock_source_enable+0x9a>
    1332:	4a19      	ldr	r2, [pc, #100]	; (1398 <system_clock_source_enable+0xa0>)
    1334:	8a91      	ldrh	r1, [r2, #20]
    1336:	2302      	movs	r3, #2
    1338:	430b      	orrs	r3, r1
    133a:	8293      	strh	r3, [r2, #20]
    133c:	2000      	movs	r0, #0
    133e:	e028      	b.n	1392 <system_clock_source_enable+0x9a>
    1340:	4916      	ldr	r1, [pc, #88]	; (139c <system_clock_source_enable+0xa4>)
    1342:	680b      	ldr	r3, [r1, #0]
    1344:	2202      	movs	r2, #2
    1346:	4313      	orrs	r3, r2
    1348:	600b      	str	r3, [r1, #0]
    134a:	4b13      	ldr	r3, [pc, #76]	; (1398 <system_clock_source_enable+0xa0>)
    134c:	849a      	strh	r2, [r3, #36]	; 0x24
    134e:	1c19      	adds	r1, r3, #0
    1350:	320e      	adds	r2, #14
    1352:	68cb      	ldr	r3, [r1, #12]
    1354:	421a      	tst	r2, r3
    1356:	d0fc      	beq.n	1352 <system_clock_source_enable+0x5a>
    1358:	4a10      	ldr	r2, [pc, #64]	; (139c <system_clock_source_enable+0xa4>)
    135a:	6891      	ldr	r1, [r2, #8]
    135c:	4b0e      	ldr	r3, [pc, #56]	; (1398 <system_clock_source_enable+0xa0>)
    135e:	62d9      	str	r1, [r3, #44]	; 0x2c
    1360:	6852      	ldr	r2, [r2, #4]
    1362:	629a      	str	r2, [r3, #40]	; 0x28
    1364:	2200      	movs	r2, #0
    1366:	849a      	strh	r2, [r3, #36]	; 0x24
    1368:	1c19      	adds	r1, r3, #0
    136a:	3210      	adds	r2, #16
    136c:	68cb      	ldr	r3, [r1, #12]
    136e:	421a      	tst	r2, r3
    1370:	d0fc      	beq.n	136c <system_clock_source_enable+0x74>
    1372:	4b0a      	ldr	r3, [pc, #40]	; (139c <system_clock_source_enable+0xa4>)
    1374:	681b      	ldr	r3, [r3, #0]
    1376:	b29b      	uxth	r3, r3
    1378:	4a07      	ldr	r2, [pc, #28]	; (1398 <system_clock_source_enable+0xa0>)
    137a:	8493      	strh	r3, [r2, #36]	; 0x24
    137c:	2000      	movs	r0, #0
    137e:	e008      	b.n	1392 <system_clock_source_enable+0x9a>
    1380:	4905      	ldr	r1, [pc, #20]	; (1398 <system_clock_source_enable+0xa0>)
    1382:	2244      	movs	r2, #68	; 0x44
    1384:	5c88      	ldrb	r0, [r1, r2]
    1386:	2302      	movs	r3, #2
    1388:	4303      	orrs	r3, r0
    138a:	548b      	strb	r3, [r1, r2]
    138c:	2000      	movs	r0, #0
    138e:	e000      	b.n	1392 <system_clock_source_enable+0x9a>
    1390:	2000      	movs	r0, #0
    1392:	4770      	bx	lr
    1394:	00002cf4 	.word	0x00002cf4
    1398:	40000800 	.word	0x40000800
    139c:	20000184 	.word	0x20000184

000013a0 <system_clock_init>:
    13a0:	b5f0      	push	{r4, r5, r6, r7, lr}
    13a2:	464f      	mov	r7, r9
    13a4:	4646      	mov	r6, r8
    13a6:	b4c0      	push	{r6, r7}
    13a8:	b091      	sub	sp, #68	; 0x44
    13aa:	22c2      	movs	r2, #194	; 0xc2
    13ac:	00d2      	lsls	r2, r2, #3
    13ae:	4b61      	ldr	r3, [pc, #388]	; (1534 <system_clock_init+0x194>)
    13b0:	609a      	str	r2, [r3, #8]
    13b2:	4961      	ldr	r1, [pc, #388]	; (1538 <system_clock_init+0x198>)
    13b4:	684b      	ldr	r3, [r1, #4]
    13b6:	221e      	movs	r2, #30
    13b8:	4393      	bics	r3, r2
    13ba:	3a1a      	subs	r2, #26
    13bc:	4313      	orrs	r3, r2
    13be:	604b      	str	r3, [r1, #4]
    13c0:	ab01      	add	r3, sp, #4
    13c2:	701a      	strb	r2, [r3, #0]
    13c4:	2400      	movs	r4, #0
    13c6:	4d5d      	ldr	r5, [pc, #372]	; (153c <system_clock_init+0x19c>)
    13c8:	b2e0      	uxtb	r0, r4
    13ca:	a901      	add	r1, sp, #4
    13cc:	47a8      	blx	r5
    13ce:	3401      	adds	r4, #1
    13d0:	2c25      	cmp	r4, #37	; 0x25
    13d2:	d1f9      	bne.n	13c8 <system_clock_init+0x28>
    13d4:	a80c      	add	r0, sp, #48	; 0x30
    13d6:	2300      	movs	r3, #0
    13d8:	7003      	strb	r3, [r0, #0]
    13da:	2280      	movs	r2, #128	; 0x80
    13dc:	0212      	lsls	r2, r2, #8
    13de:	6082      	str	r2, [r0, #8]
    13e0:	70c3      	strb	r3, [r0, #3]
    13e2:	2201      	movs	r2, #1
    13e4:	7102      	strb	r2, [r0, #4]
    13e6:	7303      	strb	r3, [r0, #12]
    13e8:	7383      	strb	r3, [r0, #14]
    13ea:	2106      	movs	r1, #6
    13ec:	7041      	strb	r1, [r0, #1]
    13ee:	7082      	strb	r2, [r0, #2]
    13f0:	7343      	strb	r3, [r0, #13]
    13f2:	4b53      	ldr	r3, [pc, #332]	; (1540 <system_clock_init+0x1a0>)
    13f4:	4798      	blx	r3
    13f6:	2005      	movs	r0, #5
    13f8:	4b52      	ldr	r3, [pc, #328]	; (1544 <system_clock_init+0x1a4>)
    13fa:	4798      	blx	r3
    13fc:	494d      	ldr	r1, [pc, #308]	; (1534 <system_clock_init+0x194>)
    13fe:	2202      	movs	r2, #2
    1400:	68cb      	ldr	r3, [r1, #12]
    1402:	421a      	tst	r2, r3
    1404:	d0fc      	beq.n	1400 <system_clock_init+0x60>
    1406:	494b      	ldr	r1, [pc, #300]	; (1534 <system_clock_init+0x194>)
    1408:	8a8a      	ldrh	r2, [r1, #20]
    140a:	2380      	movs	r3, #128	; 0x80
    140c:	4313      	orrs	r3, r2
    140e:	828b      	strh	r3, [r1, #20]
    1410:	4d4d      	ldr	r5, [pc, #308]	; (1548 <system_clock_init+0x1a8>)
    1412:	682b      	ldr	r3, [r5, #0]
    1414:	04db      	lsls	r3, r3, #19
    1416:	0e5b      	lsrs	r3, r3, #25
    1418:	041a      	lsls	r2, r3, #16
    141a:	6988      	ldr	r0, [r1, #24]
    141c:	4b4b      	ldr	r3, [pc, #300]	; (154c <system_clock_init+0x1ac>)
    141e:	4003      	ands	r3, r0
    1420:	4313      	orrs	r3, r2
    1422:	618b      	str	r3, [r1, #24]
    1424:	a80a      	add	r0, sp, #40	; 0x28
    1426:	2301      	movs	r3, #1
    1428:	7043      	strb	r3, [r0, #1]
    142a:	7083      	strb	r3, [r0, #2]
    142c:	2400      	movs	r4, #0
    142e:	70c4      	strb	r4, [r0, #3]
    1430:	7103      	strb	r3, [r0, #4]
    1432:	3306      	adds	r3, #6
    1434:	7003      	strb	r3, [r0, #0]
    1436:	7144      	strb	r4, [r0, #5]
    1438:	4b45      	ldr	r3, [pc, #276]	; (1550 <system_clock_init+0x1b0>)
    143a:	4798      	blx	r3
    143c:	2004      	movs	r0, #4
    143e:	4b41      	ldr	r3, [pc, #260]	; (1544 <system_clock_init+0x1a4>)
    1440:	4798      	blx	r3
    1442:	ab05      	add	r3, sp, #20
    1444:	2200      	movs	r2, #0
    1446:	805c      	strh	r4, [r3, #2]
    1448:	809c      	strh	r4, [r3, #4]
    144a:	719a      	strb	r2, [r3, #6]
    144c:	71da      	strb	r2, [r3, #7]
    144e:	213f      	movs	r1, #63	; 0x3f
    1450:	8159      	strh	r1, [r3, #10]
    1452:	393b      	subs	r1, #59	; 0x3b
    1454:	7019      	strb	r1, [r3, #0]
    1456:	705a      	strb	r2, [r3, #1]
    1458:	682b      	ldr	r3, [r5, #0]
    145a:	0e9b      	lsrs	r3, r3, #26
    145c:	2b3f      	cmp	r3, #63	; 0x3f
    145e:	d100      	bne.n	1462 <system_clock_init+0xc2>
    1460:	3b20      	subs	r3, #32
    1462:	a805      	add	r0, sp, #20
    1464:	7203      	strb	r3, [r0, #8]
    1466:	23b7      	movs	r3, #183	; 0xb7
    1468:	00db      	lsls	r3, r3, #3
    146a:	8203      	strh	r3, [r0, #16]
    146c:	2307      	movs	r3, #7
    146e:	7303      	strb	r3, [r0, #12]
    1470:	3338      	adds	r3, #56	; 0x38
    1472:	81c3      	strh	r3, [r0, #14]
    1474:	4b37      	ldr	r3, [pc, #220]	; (1554 <system_clock_init+0x1b4>)
    1476:	4798      	blx	r3
    1478:	a804      	add	r0, sp, #16
    147a:	2500      	movs	r5, #0
    147c:	7045      	strb	r5, [r0, #1]
    147e:	2601      	movs	r6, #1
    1480:	7086      	strb	r6, [r0, #2]
    1482:	7005      	strb	r5, [r0, #0]
    1484:	4b34      	ldr	r3, [pc, #208]	; (1558 <system_clock_init+0x1b8>)
    1486:	4798      	blx	r3
    1488:	2006      	movs	r0, #6
    148a:	4b2e      	ldr	r3, [pc, #184]	; (1544 <system_clock_init+0x1a4>)
    148c:	4699      	mov	r9, r3
    148e:	4798      	blx	r3
    1490:	4b32      	ldr	r3, [pc, #200]	; (155c <system_clock_init+0x1bc>)
    1492:	4798      	blx	r3
    1494:	ac01      	add	r4, sp, #4
    1496:	6066      	str	r6, [r4, #4]
    1498:	7065      	strb	r5, [r4, #1]
    149a:	7225      	strb	r5, [r4, #8]
    149c:	7265      	strb	r5, [r4, #9]
    149e:	2305      	movs	r3, #5
    14a0:	7023      	strb	r3, [r4, #0]
    14a2:	2001      	movs	r0, #1
    14a4:	1c21      	adds	r1, r4, #0
    14a6:	4b2e      	ldr	r3, [pc, #184]	; (1560 <system_clock_init+0x1c0>)
    14a8:	4698      	mov	r8, r3
    14aa:	4798      	blx	r3
    14ac:	2001      	movs	r0, #1
    14ae:	4f2d      	ldr	r7, [pc, #180]	; (1564 <system_clock_init+0x1c4>)
    14b0:	47b8      	blx	r7
    14b2:	7065      	strb	r5, [r4, #1]
    14b4:	7225      	strb	r5, [r4, #8]
    14b6:	7265      	strb	r5, [r4, #9]
    14b8:	2304      	movs	r3, #4
    14ba:	7023      	strb	r3, [r4, #0]
    14bc:	331c      	adds	r3, #28
    14be:	6063      	str	r3, [r4, #4]
    14c0:	2002      	movs	r0, #2
    14c2:	1c21      	adds	r1, r4, #0
    14c4:	47c0      	blx	r8
    14c6:	2002      	movs	r0, #2
    14c8:	47b8      	blx	r7
    14ca:	6066      	str	r6, [r4, #4]
    14cc:	7065      	strb	r5, [r4, #1]
    14ce:	2306      	movs	r3, #6
    14d0:	7023      	strb	r3, [r4, #0]
    14d2:	7225      	strb	r5, [r4, #8]
    14d4:	7265      	strb	r5, [r4, #9]
    14d6:	2003      	movs	r0, #3
    14d8:	1c21      	adds	r1, r4, #0
    14da:	47c0      	blx	r8
    14dc:	2003      	movs	r0, #3
    14de:	47b8      	blx	r7
    14e0:	7026      	strb	r6, [r4, #0]
    14e2:	2000      	movs	r0, #0
    14e4:	1c21      	adds	r1, r4, #0
    14e6:	4b15      	ldr	r3, [pc, #84]	; (153c <system_clock_init+0x19c>)
    14e8:	4798      	blx	r3
    14ea:	2000      	movs	r0, #0
    14ec:	4b1e      	ldr	r3, [pc, #120]	; (1568 <system_clock_init+0x1c8>)
    14ee:	4798      	blx	r3
    14f0:	2007      	movs	r0, #7
    14f2:	47c8      	blx	r9
    14f4:	490f      	ldr	r1, [pc, #60]	; (1534 <system_clock_init+0x194>)
    14f6:	22d0      	movs	r2, #208	; 0xd0
    14f8:	68cb      	ldr	r3, [r1, #12]
    14fa:	4013      	ands	r3, r2
    14fc:	2bd0      	cmp	r3, #208	; 0xd0
    14fe:	d1fb      	bne.n	14f8 <system_clock_init+0x158>
    1500:	4a1a      	ldr	r2, [pc, #104]	; (156c <system_clock_init+0x1cc>)
    1502:	2300      	movs	r3, #0
    1504:	7213      	strb	r3, [r2, #8]
    1506:	7253      	strb	r3, [r2, #9]
    1508:	7293      	strb	r3, [r2, #10]
    150a:	72d3      	strb	r3, [r2, #11]
    150c:	a901      	add	r1, sp, #4
    150e:	704b      	strb	r3, [r1, #1]
    1510:	720b      	strb	r3, [r1, #8]
    1512:	724b      	strb	r3, [r1, #9]
    1514:	3307      	adds	r3, #7
    1516:	700b      	strb	r3, [r1, #0]
    1518:	3b04      	subs	r3, #4
    151a:	604b      	str	r3, [r1, #4]
    151c:	2000      	movs	r0, #0
    151e:	4b10      	ldr	r3, [pc, #64]	; (1560 <system_clock_init+0x1c0>)
    1520:	4798      	blx	r3
    1522:	2000      	movs	r0, #0
    1524:	4b0f      	ldr	r3, [pc, #60]	; (1564 <system_clock_init+0x1c4>)
    1526:	4798      	blx	r3
    1528:	b011      	add	sp, #68	; 0x44
    152a:	bc0c      	pop	{r2, r3}
    152c:	4690      	mov	r8, r2
    152e:	4699      	mov	r9, r3
    1530:	bdf0      	pop	{r4, r5, r6, r7, pc}
    1532:	46c0      	nop			; (mov r8, r8)
    1534:	40000800 	.word	0x40000800
    1538:	41004000 	.word	0x41004000
    153c:	000017a9 	.word	0x000017a9
    1540:	0000119d 	.word	0x0000119d
    1544:	000012f9 	.word	0x000012f9
    1548:	00806024 	.word	0x00806024
    154c:	ff80ffff 	.word	0xff80ffff
    1550:	00001115 	.word	0x00001115
    1554:	00001275 	.word	0x00001275
    1558:	000010d9 	.word	0x000010d9
    155c:	00001571 	.word	0x00001571
    1560:	00001595 	.word	0x00001595
    1564:	0000164d 	.word	0x0000164d
    1568:	0000171d 	.word	0x0000171d
    156c:	40000400 	.word	0x40000400

00001570 <system_gclk_init>:
    1570:	4a06      	ldr	r2, [pc, #24]	; (158c <system_gclk_init+0x1c>)
    1572:	6991      	ldr	r1, [r2, #24]
    1574:	2308      	movs	r3, #8
    1576:	430b      	orrs	r3, r1
    1578:	6193      	str	r3, [r2, #24]
    157a:	2201      	movs	r2, #1
    157c:	4b04      	ldr	r3, [pc, #16]	; (1590 <system_gclk_init+0x20>)
    157e:	701a      	strb	r2, [r3, #0]
    1580:	1c19      	adds	r1, r3, #0
    1582:	780b      	ldrb	r3, [r1, #0]
    1584:	4213      	tst	r3, r2
    1586:	d1fc      	bne.n	1582 <system_gclk_init+0x12>
    1588:	4770      	bx	lr
    158a:	46c0      	nop			; (mov r8, r8)
    158c:	40000400 	.word	0x40000400
    1590:	40000c00 	.word	0x40000c00

00001594 <system_gclk_gen_set_config>:
    1594:	b570      	push	{r4, r5, r6, lr}
    1596:	1c06      	adds	r6, r0, #0
    1598:	1c04      	adds	r4, r0, #0
    159a:	780d      	ldrb	r5, [r1, #0]
    159c:	022d      	lsls	r5, r5, #8
    159e:	4305      	orrs	r5, r0
    15a0:	784b      	ldrb	r3, [r1, #1]
    15a2:	2b00      	cmp	r3, #0
    15a4:	d002      	beq.n	15ac <system_gclk_gen_set_config+0x18>
    15a6:	2380      	movs	r3, #128	; 0x80
    15a8:	02db      	lsls	r3, r3, #11
    15aa:	431d      	orrs	r5, r3
    15ac:	7a4b      	ldrb	r3, [r1, #9]
    15ae:	2b00      	cmp	r3, #0
    15b0:	d002      	beq.n	15b8 <system_gclk_gen_set_config+0x24>
    15b2:	2380      	movs	r3, #128	; 0x80
    15b4:	031b      	lsls	r3, r3, #12
    15b6:	431d      	orrs	r5, r3
    15b8:	6848      	ldr	r0, [r1, #4]
    15ba:	2801      	cmp	r0, #1
    15bc:	d918      	bls.n	15f0 <system_gclk_gen_set_config+0x5c>
    15be:	1e43      	subs	r3, r0, #1
    15c0:	4218      	tst	r0, r3
    15c2:	d110      	bne.n	15e6 <system_gclk_gen_set_config+0x52>
    15c4:	2802      	cmp	r0, #2
    15c6:	d906      	bls.n	15d6 <system_gclk_gen_set_config+0x42>
    15c8:	2302      	movs	r3, #2
    15ca:	2200      	movs	r2, #0
    15cc:	3201      	adds	r2, #1
    15ce:	005b      	lsls	r3, r3, #1
    15d0:	4298      	cmp	r0, r3
    15d2:	d8fb      	bhi.n	15cc <system_gclk_gen_set_config+0x38>
    15d4:	e000      	b.n	15d8 <system_gclk_gen_set_config+0x44>
    15d6:	2200      	movs	r2, #0
    15d8:	0212      	lsls	r2, r2, #8
    15da:	4332      	orrs	r2, r6
    15dc:	1c14      	adds	r4, r2, #0
    15de:	2380      	movs	r3, #128	; 0x80
    15e0:	035b      	lsls	r3, r3, #13
    15e2:	431d      	orrs	r5, r3
    15e4:	e004      	b.n	15f0 <system_gclk_gen_set_config+0x5c>
    15e6:	0204      	lsls	r4, r0, #8
    15e8:	4334      	orrs	r4, r6
    15ea:	2380      	movs	r3, #128	; 0x80
    15ec:	029b      	lsls	r3, r3, #10
    15ee:	431d      	orrs	r5, r3
    15f0:	7a0b      	ldrb	r3, [r1, #8]
    15f2:	2b00      	cmp	r3, #0
    15f4:	d002      	beq.n	15fc <system_gclk_gen_set_config+0x68>
    15f6:	2380      	movs	r3, #128	; 0x80
    15f8:	039b      	lsls	r3, r3, #14
    15fa:	431d      	orrs	r5, r3
    15fc:	4a0f      	ldr	r2, [pc, #60]	; (163c <system_gclk_gen_set_config+0xa8>)
    15fe:	7853      	ldrb	r3, [r2, #1]
    1600:	b25b      	sxtb	r3, r3
    1602:	2b00      	cmp	r3, #0
    1604:	dbfb      	blt.n	15fe <system_gclk_gen_set_config+0x6a>
    1606:	4b0e      	ldr	r3, [pc, #56]	; (1640 <system_gclk_gen_set_config+0xac>)
    1608:	4798      	blx	r3
    160a:	4b0e      	ldr	r3, [pc, #56]	; (1644 <system_gclk_gen_set_config+0xb0>)
    160c:	701e      	strb	r6, [r3, #0]
    160e:	4a0b      	ldr	r2, [pc, #44]	; (163c <system_gclk_gen_set_config+0xa8>)
    1610:	7853      	ldrb	r3, [r2, #1]
    1612:	b25b      	sxtb	r3, r3
    1614:	2b00      	cmp	r3, #0
    1616:	dbfb      	blt.n	1610 <system_gclk_gen_set_config+0x7c>
    1618:	4b08      	ldr	r3, [pc, #32]	; (163c <system_gclk_gen_set_config+0xa8>)
    161a:	609c      	str	r4, [r3, #8]
    161c:	1c1a      	adds	r2, r3, #0
    161e:	7853      	ldrb	r3, [r2, #1]
    1620:	b25b      	sxtb	r3, r3
    1622:	2b00      	cmp	r3, #0
    1624:	dbfb      	blt.n	161e <system_gclk_gen_set_config+0x8a>
    1626:	4a05      	ldr	r2, [pc, #20]	; (163c <system_gclk_gen_set_config+0xa8>)
    1628:	6851      	ldr	r1, [r2, #4]
    162a:	2380      	movs	r3, #128	; 0x80
    162c:	025b      	lsls	r3, r3, #9
    162e:	400b      	ands	r3, r1
    1630:	431d      	orrs	r5, r3
    1632:	6055      	str	r5, [r2, #4]
    1634:	4b04      	ldr	r3, [pc, #16]	; (1648 <system_gclk_gen_set_config+0xb4>)
    1636:	4798      	blx	r3
    1638:	bd70      	pop	{r4, r5, r6, pc}
    163a:	46c0      	nop			; (mov r8, r8)
    163c:	40000c00 	.word	0x40000c00
    1640:	00000f65 	.word	0x00000f65
    1644:	40000c08 	.word	0x40000c08
    1648:	00000fa5 	.word	0x00000fa5

0000164c <system_gclk_gen_enable>:
    164c:	b510      	push	{r4, lr}
    164e:	1c04      	adds	r4, r0, #0
    1650:	4a0b      	ldr	r2, [pc, #44]	; (1680 <system_gclk_gen_enable+0x34>)
    1652:	7853      	ldrb	r3, [r2, #1]
    1654:	b25b      	sxtb	r3, r3
    1656:	2b00      	cmp	r3, #0
    1658:	dbfb      	blt.n	1652 <system_gclk_gen_enable+0x6>
    165a:	4b0a      	ldr	r3, [pc, #40]	; (1684 <system_gclk_gen_enable+0x38>)
    165c:	4798      	blx	r3
    165e:	4b0a      	ldr	r3, [pc, #40]	; (1688 <system_gclk_gen_enable+0x3c>)
    1660:	701c      	strb	r4, [r3, #0]
    1662:	4a07      	ldr	r2, [pc, #28]	; (1680 <system_gclk_gen_enable+0x34>)
    1664:	7853      	ldrb	r3, [r2, #1]
    1666:	b25b      	sxtb	r3, r3
    1668:	2b00      	cmp	r3, #0
    166a:	dbfb      	blt.n	1664 <system_gclk_gen_enable+0x18>
    166c:	4a04      	ldr	r2, [pc, #16]	; (1680 <system_gclk_gen_enable+0x34>)
    166e:	6853      	ldr	r3, [r2, #4]
    1670:	2180      	movs	r1, #128	; 0x80
    1672:	0249      	lsls	r1, r1, #9
    1674:	430b      	orrs	r3, r1
    1676:	6053      	str	r3, [r2, #4]
    1678:	4b04      	ldr	r3, [pc, #16]	; (168c <system_gclk_gen_enable+0x40>)
    167a:	4798      	blx	r3
    167c:	bd10      	pop	{r4, pc}
    167e:	46c0      	nop			; (mov r8, r8)
    1680:	40000c00 	.word	0x40000c00
    1684:	00000f65 	.word	0x00000f65
    1688:	40000c04 	.word	0x40000c04
    168c:	00000fa5 	.word	0x00000fa5

00001690 <system_gclk_gen_get_hz>:
    1690:	b570      	push	{r4, r5, r6, lr}
    1692:	1c04      	adds	r4, r0, #0
    1694:	4a1a      	ldr	r2, [pc, #104]	; (1700 <system_gclk_gen_get_hz+0x70>)
    1696:	7853      	ldrb	r3, [r2, #1]
    1698:	b25b      	sxtb	r3, r3
    169a:	2b00      	cmp	r3, #0
    169c:	dbfb      	blt.n	1696 <system_gclk_gen_get_hz+0x6>
    169e:	4b19      	ldr	r3, [pc, #100]	; (1704 <system_gclk_gen_get_hz+0x74>)
    16a0:	4798      	blx	r3
    16a2:	4b19      	ldr	r3, [pc, #100]	; (1708 <system_gclk_gen_get_hz+0x78>)
    16a4:	701c      	strb	r4, [r3, #0]
    16a6:	4a16      	ldr	r2, [pc, #88]	; (1700 <system_gclk_gen_get_hz+0x70>)
    16a8:	7853      	ldrb	r3, [r2, #1]
    16aa:	b25b      	sxtb	r3, r3
    16ac:	2b00      	cmp	r3, #0
    16ae:	dbfb      	blt.n	16a8 <system_gclk_gen_get_hz+0x18>
    16b0:	4e13      	ldr	r6, [pc, #76]	; (1700 <system_gclk_gen_get_hz+0x70>)
    16b2:	6870      	ldr	r0, [r6, #4]
    16b4:	04c0      	lsls	r0, r0, #19
    16b6:	0ec0      	lsrs	r0, r0, #27
    16b8:	4b14      	ldr	r3, [pc, #80]	; (170c <system_gclk_gen_get_hz+0x7c>)
    16ba:	4798      	blx	r3
    16bc:	1c05      	adds	r5, r0, #0
    16be:	4b12      	ldr	r3, [pc, #72]	; (1708 <system_gclk_gen_get_hz+0x78>)
    16c0:	701c      	strb	r4, [r3, #0]
    16c2:	6876      	ldr	r6, [r6, #4]
    16c4:	02f6      	lsls	r6, r6, #11
    16c6:	0ff6      	lsrs	r6, r6, #31
    16c8:	4b11      	ldr	r3, [pc, #68]	; (1710 <system_gclk_gen_get_hz+0x80>)
    16ca:	701c      	strb	r4, [r3, #0]
    16cc:	4a0c      	ldr	r2, [pc, #48]	; (1700 <system_gclk_gen_get_hz+0x70>)
    16ce:	7853      	ldrb	r3, [r2, #1]
    16d0:	b25b      	sxtb	r3, r3
    16d2:	2b00      	cmp	r3, #0
    16d4:	dbfb      	blt.n	16ce <system_gclk_gen_get_hz+0x3e>
    16d6:	4b0a      	ldr	r3, [pc, #40]	; (1700 <system_gclk_gen_get_hz+0x70>)
    16d8:	689c      	ldr	r4, [r3, #8]
    16da:	0a24      	lsrs	r4, r4, #8
    16dc:	b2a4      	uxth	r4, r4
    16de:	4b0d      	ldr	r3, [pc, #52]	; (1714 <system_gclk_gen_get_hz+0x84>)
    16e0:	4798      	blx	r3
    16e2:	2e00      	cmp	r6, #0
    16e4:	d107      	bne.n	16f6 <system_gclk_gen_get_hz+0x66>
    16e6:	2c01      	cmp	r4, #1
    16e8:	d907      	bls.n	16fa <system_gclk_gen_get_hz+0x6a>
    16ea:	1c28      	adds	r0, r5, #0
    16ec:	1c21      	adds	r1, r4, #0
    16ee:	4b0a      	ldr	r3, [pc, #40]	; (1718 <system_gclk_gen_get_hz+0x88>)
    16f0:	4798      	blx	r3
    16f2:	1c05      	adds	r5, r0, #0
    16f4:	e001      	b.n	16fa <system_gclk_gen_get_hz+0x6a>
    16f6:	3401      	adds	r4, #1
    16f8:	40e5      	lsrs	r5, r4
    16fa:	1c28      	adds	r0, r5, #0
    16fc:	bd70      	pop	{r4, r5, r6, pc}
    16fe:	46c0      	nop			; (mov r8, r8)
    1700:	40000c00 	.word	0x40000c00
    1704:	00000f65 	.word	0x00000f65
    1708:	40000c04 	.word	0x40000c04
    170c:	00001049 	.word	0x00001049
    1710:	40000c08 	.word	0x40000c08
    1714:	00000fa5 	.word	0x00000fa5
    1718:	00001b69 	.word	0x00001b69

0000171c <system_gclk_chan_enable>:
    171c:	b510      	push	{r4, lr}
    171e:	1c04      	adds	r4, r0, #0
    1720:	4b06      	ldr	r3, [pc, #24]	; (173c <system_gclk_chan_enable+0x20>)
    1722:	4798      	blx	r3
    1724:	4b06      	ldr	r3, [pc, #24]	; (1740 <system_gclk_chan_enable+0x24>)
    1726:	701c      	strb	r4, [r3, #0]
    1728:	4a06      	ldr	r2, [pc, #24]	; (1744 <system_gclk_chan_enable+0x28>)
    172a:	8851      	ldrh	r1, [r2, #2]
    172c:	2380      	movs	r3, #128	; 0x80
    172e:	01db      	lsls	r3, r3, #7
    1730:	430b      	orrs	r3, r1
    1732:	8053      	strh	r3, [r2, #2]
    1734:	4b04      	ldr	r3, [pc, #16]	; (1748 <system_gclk_chan_enable+0x2c>)
    1736:	4798      	blx	r3
    1738:	bd10      	pop	{r4, pc}
    173a:	46c0      	nop			; (mov r8, r8)
    173c:	00000f65 	.word	0x00000f65
    1740:	40000c02 	.word	0x40000c02
    1744:	40000c00 	.word	0x40000c00
    1748:	00000fa5 	.word	0x00000fa5

0000174c <system_gclk_chan_disable>:
    174c:	b510      	push	{r4, lr}
    174e:	1c04      	adds	r4, r0, #0
    1750:	4b0f      	ldr	r3, [pc, #60]	; (1790 <system_gclk_chan_disable+0x44>)
    1752:	4798      	blx	r3
    1754:	4b0f      	ldr	r3, [pc, #60]	; (1794 <system_gclk_chan_disable+0x48>)
    1756:	701c      	strb	r4, [r3, #0]
    1758:	4b0f      	ldr	r3, [pc, #60]	; (1798 <system_gclk_chan_disable+0x4c>)
    175a:	885a      	ldrh	r2, [r3, #2]
    175c:	0512      	lsls	r2, r2, #20
    175e:	0f10      	lsrs	r0, r2, #28
    1760:	8859      	ldrh	r1, [r3, #2]
    1762:	4a0e      	ldr	r2, [pc, #56]	; (179c <system_gclk_chan_disable+0x50>)
    1764:	400a      	ands	r2, r1
    1766:	805a      	strh	r2, [r3, #2]
    1768:	8859      	ldrh	r1, [r3, #2]
    176a:	4a0d      	ldr	r2, [pc, #52]	; (17a0 <system_gclk_chan_disable+0x54>)
    176c:	400a      	ands	r2, r1
    176e:	805a      	strh	r2, [r3, #2]
    1770:	1c19      	adds	r1, r3, #0
    1772:	2280      	movs	r2, #128	; 0x80
    1774:	01d2      	lsls	r2, r2, #7
    1776:	884b      	ldrh	r3, [r1, #2]
    1778:	4213      	tst	r3, r2
    177a:	d1fc      	bne.n	1776 <system_gclk_chan_disable+0x2a>
    177c:	4906      	ldr	r1, [pc, #24]	; (1798 <system_gclk_chan_disable+0x4c>)
    177e:	0202      	lsls	r2, r0, #8
    1780:	8848      	ldrh	r0, [r1, #2]
    1782:	4b06      	ldr	r3, [pc, #24]	; (179c <system_gclk_chan_disable+0x50>)
    1784:	4003      	ands	r3, r0
    1786:	4313      	orrs	r3, r2
    1788:	804b      	strh	r3, [r1, #2]
    178a:	4b06      	ldr	r3, [pc, #24]	; (17a4 <system_gclk_chan_disable+0x58>)
    178c:	4798      	blx	r3
    178e:	bd10      	pop	{r4, pc}
    1790:	00000f65 	.word	0x00000f65
    1794:	40000c02 	.word	0x40000c02
    1798:	40000c00 	.word	0x40000c00
    179c:	fffff0ff 	.word	0xfffff0ff
    17a0:	ffffbfff 	.word	0xffffbfff
    17a4:	00000fa5 	.word	0x00000fa5

000017a8 <system_gclk_chan_set_config>:
    17a8:	b510      	push	{r4, lr}
    17aa:	780c      	ldrb	r4, [r1, #0]
    17ac:	0224      	lsls	r4, r4, #8
    17ae:	4304      	orrs	r4, r0
    17b0:	4b02      	ldr	r3, [pc, #8]	; (17bc <system_gclk_chan_set_config+0x14>)
    17b2:	4798      	blx	r3
    17b4:	b2a4      	uxth	r4, r4
    17b6:	4b02      	ldr	r3, [pc, #8]	; (17c0 <system_gclk_chan_set_config+0x18>)
    17b8:	805c      	strh	r4, [r3, #2]
    17ba:	bd10      	pop	{r4, pc}
    17bc:	0000174d 	.word	0x0000174d
    17c0:	40000c00 	.word	0x40000c00

000017c4 <system_gclk_chan_get_hz>:
    17c4:	b510      	push	{r4, lr}
    17c6:	1c04      	adds	r4, r0, #0
    17c8:	4b06      	ldr	r3, [pc, #24]	; (17e4 <system_gclk_chan_get_hz+0x20>)
    17ca:	4798      	blx	r3
    17cc:	4b06      	ldr	r3, [pc, #24]	; (17e8 <system_gclk_chan_get_hz+0x24>)
    17ce:	701c      	strb	r4, [r3, #0]
    17d0:	4b06      	ldr	r3, [pc, #24]	; (17ec <system_gclk_chan_get_hz+0x28>)
    17d2:	885c      	ldrh	r4, [r3, #2]
    17d4:	0524      	lsls	r4, r4, #20
    17d6:	0f24      	lsrs	r4, r4, #28
    17d8:	4b05      	ldr	r3, [pc, #20]	; (17f0 <system_gclk_chan_get_hz+0x2c>)
    17da:	4798      	blx	r3
    17dc:	1c20      	adds	r0, r4, #0
    17de:	4b05      	ldr	r3, [pc, #20]	; (17f4 <system_gclk_chan_get_hz+0x30>)
    17e0:	4798      	blx	r3
    17e2:	bd10      	pop	{r4, pc}
    17e4:	00000f65 	.word	0x00000f65
    17e8:	40000c02 	.word	0x40000c02
    17ec:	40000c00 	.word	0x40000c00
    17f0:	00000fa5 	.word	0x00000fa5
    17f4:	00001691 	.word	0x00001691

000017f8 <_system_pinmux_config>:
    17f8:	b530      	push	{r4, r5, lr}
    17fa:	78d3      	ldrb	r3, [r2, #3]
    17fc:	2b00      	cmp	r3, #0
    17fe:	d11e      	bne.n	183e <_system_pinmux_config+0x46>
    1800:	7814      	ldrb	r4, [r2, #0]
    1802:	2c80      	cmp	r4, #128	; 0x80
    1804:	d004      	beq.n	1810 <_system_pinmux_config+0x18>
    1806:	0624      	lsls	r4, r4, #24
    1808:	2380      	movs	r3, #128	; 0x80
    180a:	025b      	lsls	r3, r3, #9
    180c:	431c      	orrs	r4, r3
    180e:	e000      	b.n	1812 <_system_pinmux_config+0x1a>
    1810:	2400      	movs	r4, #0
    1812:	7853      	ldrb	r3, [r2, #1]
    1814:	2502      	movs	r5, #2
    1816:	43ab      	bics	r3, r5
    1818:	d10a      	bne.n	1830 <_system_pinmux_config+0x38>
    181a:	7893      	ldrb	r3, [r2, #2]
    181c:	2b00      	cmp	r3, #0
    181e:	d103      	bne.n	1828 <_system_pinmux_config+0x30>
    1820:	2380      	movs	r3, #128	; 0x80
    1822:	029b      	lsls	r3, r3, #10
    1824:	431c      	orrs	r4, r3
    1826:	e002      	b.n	182e <_system_pinmux_config+0x36>
    1828:	23c0      	movs	r3, #192	; 0xc0
    182a:	02db      	lsls	r3, r3, #11
    182c:	431c      	orrs	r4, r3
    182e:	6041      	str	r1, [r0, #4]
    1830:	7853      	ldrb	r3, [r2, #1]
    1832:	3b01      	subs	r3, #1
    1834:	2b01      	cmp	r3, #1
    1836:	d812      	bhi.n	185e <_system_pinmux_config+0x66>
    1838:	4b18      	ldr	r3, [pc, #96]	; (189c <_system_pinmux_config+0xa4>)
    183a:	401c      	ands	r4, r3
    183c:	e00f      	b.n	185e <_system_pinmux_config+0x66>
    183e:	6041      	str	r1, [r0, #4]
    1840:	040b      	lsls	r3, r1, #16
    1842:	0c1b      	lsrs	r3, r3, #16
    1844:	24a0      	movs	r4, #160	; 0xa0
    1846:	05e4      	lsls	r4, r4, #23
    1848:	4323      	orrs	r3, r4
    184a:	6283      	str	r3, [r0, #40]	; 0x28
    184c:	0c0b      	lsrs	r3, r1, #16
    184e:	24d0      	movs	r4, #208	; 0xd0
    1850:	0624      	lsls	r4, r4, #24
    1852:	4323      	orrs	r3, r4
    1854:	6283      	str	r3, [r0, #40]	; 0x28
    1856:	78d3      	ldrb	r3, [r2, #3]
    1858:	2b00      	cmp	r3, #0
    185a:	d018      	beq.n	188e <_system_pinmux_config+0x96>
    185c:	e01c      	b.n	1898 <_system_pinmux_config+0xa0>
    185e:	040b      	lsls	r3, r1, #16
    1860:	0c1b      	lsrs	r3, r3, #16
    1862:	25a0      	movs	r5, #160	; 0xa0
    1864:	05ed      	lsls	r5, r5, #23
    1866:	432b      	orrs	r3, r5
    1868:	4323      	orrs	r3, r4
    186a:	6283      	str	r3, [r0, #40]	; 0x28
    186c:	0c0b      	lsrs	r3, r1, #16
    186e:	25d0      	movs	r5, #208	; 0xd0
    1870:	062d      	lsls	r5, r5, #24
    1872:	432b      	orrs	r3, r5
    1874:	4323      	orrs	r3, r4
    1876:	6283      	str	r3, [r0, #40]	; 0x28
    1878:	78d3      	ldrb	r3, [r2, #3]
    187a:	2b00      	cmp	r3, #0
    187c:	d10c      	bne.n	1898 <_system_pinmux_config+0xa0>
    187e:	0363      	lsls	r3, r4, #13
    1880:	d505      	bpl.n	188e <_system_pinmux_config+0x96>
    1882:	7893      	ldrb	r3, [r2, #2]
    1884:	2b01      	cmp	r3, #1
    1886:	d101      	bne.n	188c <_system_pinmux_config+0x94>
    1888:	6181      	str	r1, [r0, #24]
    188a:	e000      	b.n	188e <_system_pinmux_config+0x96>
    188c:	6141      	str	r1, [r0, #20]
    188e:	7853      	ldrb	r3, [r2, #1]
    1890:	3b01      	subs	r3, #1
    1892:	2b01      	cmp	r3, #1
    1894:	d800      	bhi.n	1898 <_system_pinmux_config+0xa0>
    1896:	6081      	str	r1, [r0, #8]
    1898:	bd30      	pop	{r4, r5, pc}
    189a:	46c0      	nop			; (mov r8, r8)
    189c:	fffbffff 	.word	0xfffbffff

000018a0 <system_pinmux_pin_set_config>:
    18a0:	b508      	push	{r3, lr}
    18a2:	1c03      	adds	r3, r0, #0
    18a4:	1c0a      	adds	r2, r1, #0
    18a6:	09c1      	lsrs	r1, r0, #7
    18a8:	2000      	movs	r0, #0
    18aa:	2900      	cmp	r1, #0
    18ac:	d104      	bne.n	18b8 <system_pinmux_pin_set_config+0x18>
    18ae:	0958      	lsrs	r0, r3, #5
    18b0:	01c0      	lsls	r0, r0, #7
    18b2:	4905      	ldr	r1, [pc, #20]	; (18c8 <system_pinmux_pin_set_config+0x28>)
    18b4:	468c      	mov	ip, r1
    18b6:	4460      	add	r0, ip
    18b8:	211f      	movs	r1, #31
    18ba:	400b      	ands	r3, r1
    18bc:	391e      	subs	r1, #30
    18be:	4099      	lsls	r1, r3
    18c0:	4b02      	ldr	r3, [pc, #8]	; (18cc <system_pinmux_pin_set_config+0x2c>)
    18c2:	4798      	blx	r3
    18c4:	bd08      	pop	{r3, pc}
    18c6:	46c0      	nop			; (mov r8, r8)
    18c8:	41004400 	.word	0x41004400
    18cc:	000017f9 	.word	0x000017f9

000018d0 <_system_dummy_init>:
    18d0:	4770      	bx	lr
    18d2:	46c0      	nop			; (mov r8, r8)

000018d4 <system_init>:
    18d4:	b508      	push	{r3, lr}
    18d6:	4b05      	ldr	r3, [pc, #20]	; (18ec <system_init+0x18>)
    18d8:	4798      	blx	r3
    18da:	4b05      	ldr	r3, [pc, #20]	; (18f0 <system_init+0x1c>)
    18dc:	4798      	blx	r3
    18de:	4b05      	ldr	r3, [pc, #20]	; (18f4 <system_init+0x20>)
    18e0:	4798      	blx	r3
    18e2:	4b05      	ldr	r3, [pc, #20]	; (18f8 <system_init+0x24>)
    18e4:	4798      	blx	r3
    18e6:	4b05      	ldr	r3, [pc, #20]	; (18fc <system_init+0x28>)
    18e8:	4798      	blx	r3
    18ea:	bd08      	pop	{r3, pc}
    18ec:	000013a1 	.word	0x000013a1
    18f0:	00000fd5 	.word	0x00000fd5
    18f4:	000018d1 	.word	0x000018d1
    18f8:	000018d1 	.word	0x000018d1
    18fc:	000018d1 	.word	0x000018d1

00001900 <Dummy_Handler>:
    1900:	e7fe      	b.n	1900 <Dummy_Handler>
    1902:	46c0      	nop			; (mov r8, r8)

00001904 <Reset_Handler>:
    1904:	b570      	push	{r4, r5, r6, lr}
    1906:	4b2e      	ldr	r3, [pc, #184]	; (19c0 <Reset_Handler+0xbc>)
    1908:	4a2e      	ldr	r2, [pc, #184]	; (19c4 <Reset_Handler+0xc0>)
    190a:	429a      	cmp	r2, r3
    190c:	d003      	beq.n	1916 <Reset_Handler+0x12>
    190e:	4b2e      	ldr	r3, [pc, #184]	; (19c8 <Reset_Handler+0xc4>)
    1910:	4a2b      	ldr	r2, [pc, #172]	; (19c0 <Reset_Handler+0xbc>)
    1912:	429a      	cmp	r2, r3
    1914:	d304      	bcc.n	1920 <Reset_Handler+0x1c>
    1916:	4b2d      	ldr	r3, [pc, #180]	; (19cc <Reset_Handler+0xc8>)
    1918:	4a2d      	ldr	r2, [pc, #180]	; (19d0 <Reset_Handler+0xcc>)
    191a:	429a      	cmp	r2, r3
    191c:	d310      	bcc.n	1940 <Reset_Handler+0x3c>
    191e:	e01e      	b.n	195e <Reset_Handler+0x5a>
    1920:	4a2c      	ldr	r2, [pc, #176]	; (19d4 <Reset_Handler+0xd0>)
    1922:	4b29      	ldr	r3, [pc, #164]	; (19c8 <Reset_Handler+0xc4>)
    1924:	3303      	adds	r3, #3
    1926:	1a9b      	subs	r3, r3, r2
    1928:	089b      	lsrs	r3, r3, #2
    192a:	3301      	adds	r3, #1
    192c:	009b      	lsls	r3, r3, #2
    192e:	2200      	movs	r2, #0
    1930:	4823      	ldr	r0, [pc, #140]	; (19c0 <Reset_Handler+0xbc>)
    1932:	4924      	ldr	r1, [pc, #144]	; (19c4 <Reset_Handler+0xc0>)
    1934:	588c      	ldr	r4, [r1, r2]
    1936:	5084      	str	r4, [r0, r2]
    1938:	3204      	adds	r2, #4
    193a:	429a      	cmp	r2, r3
    193c:	d1fa      	bne.n	1934 <Reset_Handler+0x30>
    193e:	e7ea      	b.n	1916 <Reset_Handler+0x12>
    1940:	4a25      	ldr	r2, [pc, #148]	; (19d8 <Reset_Handler+0xd4>)
    1942:	4b22      	ldr	r3, [pc, #136]	; (19cc <Reset_Handler+0xc8>)
    1944:	3303      	adds	r3, #3
    1946:	1a9b      	subs	r3, r3, r2
    1948:	089b      	lsrs	r3, r3, #2
    194a:	3301      	adds	r3, #1
    194c:	009b      	lsls	r3, r3, #2
    194e:	2200      	movs	r2, #0
    1950:	481f      	ldr	r0, [pc, #124]	; (19d0 <Reset_Handler+0xcc>)
    1952:	2100      	movs	r1, #0
    1954:	1814      	adds	r4, r2, r0
    1956:	6021      	str	r1, [r4, #0]
    1958:	3204      	adds	r2, #4
    195a:	429a      	cmp	r2, r3
    195c:	d1fa      	bne.n	1954 <Reset_Handler+0x50>
    195e:	4a1f      	ldr	r2, [pc, #124]	; (19dc <Reset_Handler+0xd8>)
    1960:	21ff      	movs	r1, #255	; 0xff
    1962:	4b1f      	ldr	r3, [pc, #124]	; (19e0 <Reset_Handler+0xdc>)
    1964:	438b      	bics	r3, r1
    1966:	6093      	str	r3, [r2, #8]
    1968:	39fd      	subs	r1, #253	; 0xfd
    196a:	2390      	movs	r3, #144	; 0x90
    196c:	005b      	lsls	r3, r3, #1
    196e:	4a1d      	ldr	r2, [pc, #116]	; (19e4 <Reset_Handler+0xe0>)
    1970:	50d1      	str	r1, [r2, r3]
    1972:	481d      	ldr	r0, [pc, #116]	; (19e8 <Reset_Handler+0xe4>)
    1974:	78c3      	ldrb	r3, [r0, #3]
    1976:	2403      	movs	r4, #3
    1978:	43a3      	bics	r3, r4
    197a:	2202      	movs	r2, #2
    197c:	4313      	orrs	r3, r2
    197e:	70c3      	strb	r3, [r0, #3]
    1980:	78c3      	ldrb	r3, [r0, #3]
    1982:	260c      	movs	r6, #12
    1984:	43b3      	bics	r3, r6
    1986:	2108      	movs	r1, #8
    1988:	430b      	orrs	r3, r1
    198a:	70c3      	strb	r3, [r0, #3]
    198c:	4b17      	ldr	r3, [pc, #92]	; (19ec <Reset_Handler+0xe8>)
    198e:	7b98      	ldrb	r0, [r3, #14]
    1990:	2530      	movs	r5, #48	; 0x30
    1992:	43a8      	bics	r0, r5
    1994:	1c05      	adds	r5, r0, #0
    1996:	2020      	movs	r0, #32
    1998:	4328      	orrs	r0, r5
    199a:	7398      	strb	r0, [r3, #14]
    199c:	7b98      	ldrb	r0, [r3, #14]
    199e:	43b0      	bics	r0, r6
    19a0:	4301      	orrs	r1, r0
    19a2:	7399      	strb	r1, [r3, #14]
    19a4:	7b99      	ldrb	r1, [r3, #14]
    19a6:	43a1      	bics	r1, r4
    19a8:	430a      	orrs	r2, r1
    19aa:	739a      	strb	r2, [r3, #14]
    19ac:	4a10      	ldr	r2, [pc, #64]	; (19f0 <Reset_Handler+0xec>)
    19ae:	6851      	ldr	r1, [r2, #4]
    19b0:	2380      	movs	r3, #128	; 0x80
    19b2:	430b      	orrs	r3, r1
    19b4:	6053      	str	r3, [r2, #4]
    19b6:	4b0f      	ldr	r3, [pc, #60]	; (19f4 <Reset_Handler+0xf0>)
    19b8:	4798      	blx	r3
    19ba:	4b0f      	ldr	r3, [pc, #60]	; (19f8 <Reset_Handler+0xf4>)
    19bc:	4798      	blx	r3
    19be:	e7fe      	b.n	19be <Reset_Handler+0xba>
    19c0:	20000000 	.word	0x20000000
    19c4:	00002f10 	.word	0x00002f10
    19c8:	20000070 	.word	0x20000070
    19cc:	20000200 	.word	0x20000200
    19d0:	20000070 	.word	0x20000070
    19d4:	20000004 	.word	0x20000004
    19d8:	20000074 	.word	0x20000074
    19dc:	e000ed00 	.word	0xe000ed00
    19e0:	00000000 	.word	0x00000000
    19e4:	41007000 	.word	0x41007000
    19e8:	41005000 	.word	0x41005000
    19ec:	41004800 	.word	0x41004800
    19f0:	41004000 	.word	0x41004000
    19f4:	00001ce1 	.word	0x00001ce1
    19f8:	00001add 	.word	0x00001add

000019fc <_sbrk>:
    19fc:	1c03      	adds	r3, r0, #0
    19fe:	4a06      	ldr	r2, [pc, #24]	; (1a18 <_sbrk+0x1c>)
    1a00:	6812      	ldr	r2, [r2, #0]
    1a02:	2a00      	cmp	r2, #0
    1a04:	d102      	bne.n	1a0c <_sbrk+0x10>
    1a06:	4905      	ldr	r1, [pc, #20]	; (1a1c <_sbrk+0x20>)
    1a08:	4a03      	ldr	r2, [pc, #12]	; (1a18 <_sbrk+0x1c>)
    1a0a:	6011      	str	r1, [r2, #0]
    1a0c:	4a02      	ldr	r2, [pc, #8]	; (1a18 <_sbrk+0x1c>)
    1a0e:	6810      	ldr	r0, [r2, #0]
    1a10:	18c3      	adds	r3, r0, r3
    1a12:	6013      	str	r3, [r2, #0]
    1a14:	4770      	bx	lr
    1a16:	46c0      	nop			; (mov r8, r8)
    1a18:	2000019c 	.word	0x2000019c
    1a1c:	20002200 	.word	0x20002200

00001a20 <_close>:
    1a20:	2001      	movs	r0, #1
    1a22:	4240      	negs	r0, r0
    1a24:	4770      	bx	lr
    1a26:	46c0      	nop			; (mov r8, r8)

00001a28 <_fstat>:
    1a28:	2380      	movs	r3, #128	; 0x80
    1a2a:	019b      	lsls	r3, r3, #6
    1a2c:	604b      	str	r3, [r1, #4]
    1a2e:	2000      	movs	r0, #0
    1a30:	4770      	bx	lr
    1a32:	46c0      	nop			; (mov r8, r8)

00001a34 <_isatty>:
    1a34:	2001      	movs	r0, #1
    1a36:	4770      	bx	lr

00001a38 <_lseek>:
    1a38:	2000      	movs	r0, #0
    1a3a:	4770      	bx	lr

00001a3c <neopixelDefaults>:


/*** Assign the default values for each parameter of the neopixel ***/
void neopixelDefaults(Neopixel *neopixel_config)
{
	neopixel_config->pin = neo_PIN; 
    1a3c:	2310      	movs	r3, #16
    1a3e:	7003      	strb	r3, [r0, #0]
	neopixel_config->brightness = 0;
    1a40:	2300      	movs	r3, #0
    1a42:	7183      	strb	r3, [r0, #6]
	neopixel_config->numLeds = 1;
    1a44:	2201      	movs	r2, #1
    1a46:	8082      	strh	r2, [r0, #4]
	neopixel_config->red = 0;
    1a48:	7043      	strb	r3, [r0, #1]
	neopixel_config->green = 0;
    1a4a:	7083      	strb	r3, [r0, #2]
	neopixel_config->blue = 0;
    1a4c:	70c3      	strb	r3, [r0, #3]
}
    1a4e:	4770      	bx	lr

00001a50 <neopixelBegin>:


void neopixelBegin(Neopixel *neopixel_config)
{
    1a50:	b530      	push	{r4, r5, lr}
    1a52:	b083      	sub	sp, #12
    1a54:	1c05      	adds	r5, r0, #0
	/* Sanity check arguments */
	Assert(config);

	/* Default configuration values */
	config->direction  = PORT_PIN_DIR_INPUT;
	config->input_pull = PORT_PIN_PULL_UP;
    1a56:	a901      	add	r1, sp, #4
    1a58:	2301      	movs	r3, #1
    1a5a:	704b      	strb	r3, [r1, #1]
	config->powersave  = false;
    1a5c:	2200      	movs	r2, #0
    1a5e:	708a      	strb	r2, [r1, #2]
	struct port_config pin_conf;
	port_get_config_defaults(&pin_conf);

	/* Configure Neopixel control output */
	pin_conf.direction  = PORT_PIN_DIR_OUTPUT;
    1a60:	700b      	strb	r3, [r1, #0]
	//neopixel_config->pin
	port_pin_set_config(neo_PIN, &pin_conf);
    1a62:	2010      	movs	r0, #16
    1a64:	4b0a      	ldr	r3, [pc, #40]	; (1a90 <neopixelBegin+0x40>)
    1a66:	4798      	blx	r3

	/* Set the pin to high or low atomically based on the requested level */
	if (level) {
		port_base->OUTSET.reg = pin_mask;
	} else {
		port_base->OUTCLR.reg = pin_mask;
    1a68:	2280      	movs	r2, #128	; 0x80
    1a6a:	0252      	lsls	r2, r2, #9
    1a6c:	4b09      	ldr	r3, [pc, #36]	; (1a94 <neopixelBegin+0x44>)
    1a6e:	615a      	str	r2, [r3, #20]
	port_pin_set_output_level(neo_PIN, false);
	
	
	if((neopixel_config->pixels = (uint8_t *)malloc(neopixel_config->numLeds*3))) {
    1a70:	88ab      	ldrh	r3, [r5, #4]
    1a72:	005c      	lsls	r4, r3, #1
    1a74:	18e4      	adds	r4, r4, r3
    1a76:	1c20      	adds	r0, r4, #0
    1a78:	4b07      	ldr	r3, [pc, #28]	; (1a98 <neopixelBegin+0x48>)
    1a7a:	4798      	blx	r3
    1a7c:	60a8      	str	r0, [r5, #8]
    1a7e:	2800      	cmp	r0, #0
    1a80:	d003      	beq.n	1a8a <neopixelBegin+0x3a>
		memset(neopixel_config->pixels, 0, neopixel_config->numLeds*3);
    1a82:	2100      	movs	r1, #0
    1a84:	1c22      	adds	r2, r4, #0
    1a86:	4b05      	ldr	r3, [pc, #20]	; (1a9c <neopixelBegin+0x4c>)
    1a88:	4798      	blx	r3
	} 	
}
    1a8a:	b003      	add	sp, #12
    1a8c:	bd30      	pop	{r4, r5, pc}
    1a8e:	46c0      	nop			; (mov r8, r8)
    1a90:	00001025 	.word	0x00001025
    1a94:	41004400 	.word	0x41004400
    1a98:	00001d2d 	.word	0x00001d2d
    1a9c:	00001d53 	.word	0x00001d53

00001aa0 <neopixel_setPixelColor>:
		return ((uint32_t)g << 16) | ((uint32_t)r << 8) | b;
}

void neopixel_setPixelColor(Neopixel *neopixel_config, uint16_t n, uint32_t c)
{
	if (n<neopixel_config->numLeds)
    1aa0:	8883      	ldrh	r3, [r0, #4]
    1aa2:	428b      	cmp	r3, r1
    1aa4:	d908      	bls.n	1ab8 <neopixel_setPixelColor+0x18>
	{
		uint8_t
		r = (uint8_t)(c >> 16),
		g = (uint8_t)(c >> 8),
		b = (uint8_t)(c);
		uint8_t *p = neopixel_config->pixels[n*3];
    1aa6:	6883      	ldr	r3, [r0, #8]
    1aa8:	0048      	lsls	r0, r1, #1
    1aaa:	1841      	adds	r1, r0, r1
    1aac:	5ccb      	ldrb	r3, [r1, r3]
{
	if (n<neopixel_config->numLeds)
	{
		uint8_t
		r = (uint8_t)(c >> 16),
		g = (uint8_t)(c >> 8),
    1aae:	0a11      	lsrs	r1, r2, #8
    1ab0:	7019      	strb	r1, [r3, #0]
void neopixel_setPixelColor(Neopixel *neopixel_config, uint16_t n, uint32_t c)
{
	if (n<neopixel_config->numLeds)
	{
		uint8_t
		r = (uint8_t)(c >> 16),
    1ab2:	0c11      	lsrs	r1, r2, #16
    1ab4:	7059      	strb	r1, [r3, #1]
		g = (uint8_t)(c >> 8),
		b = (uint8_t)(c);
    1ab6:	709a      	strb	r2, [r3, #2]
		uint8_t *p = neopixel_config->pixels[n*3];
		*p++ = g;
		*p++ = r;
		*p = b;	 
	}
}
    1ab8:	4770      	bx	lr
    1aba:	46c0      	nop			; (mov r8, r8)

00001abc <neopixel_init>:
#include "neopixel.h"

Neopixel neo;

void neopixel_init()
{
    1abc:	b510      	push	{r4, lr}
neopixelDefaults(&neo);
    1abe:	4c04      	ldr	r4, [pc, #16]	; (1ad0 <neopixel_init+0x14>)
    1ac0:	1c20      	adds	r0, r4, #0
    1ac2:	4b04      	ldr	r3, [pc, #16]	; (1ad4 <neopixel_init+0x18>)
    1ac4:	4798      	blx	r3
neopixelBegin(&neo);
    1ac6:	1c20      	adds	r0, r4, #0
    1ac8:	4b03      	ldr	r3, [pc, #12]	; (1ad8 <neopixel_init+0x1c>)
    1aca:	4798      	blx	r3
}
    1acc:	bd10      	pop	{r4, pc}
    1ace:	46c0      	nop			; (mov r8, r8)
    1ad0:	200001d8 	.word	0x200001d8
    1ad4:	00001a3d 	.word	0x00001a3d
    1ad8:	00001a51 	.word	0x00001a51

00001adc <main>:
#include "neopixel_config.h"
#include "buzzer.h"
	
	
int main (void)
{
    1adc:	b5f8      	push	{r3, r4, r5, r6, r7, lr}
	system_init();
    1ade:	4b16      	ldr	r3, [pc, #88]	; (1b38 <main+0x5c>)
    1ae0:	4798      	blx	r3
	
	sio2host_init();
    1ae2:	4b16      	ldr	r3, [pc, #88]	; (1b3c <main+0x60>)
    1ae4:	4798      	blx	r3
	
	//configure_tc();
	
	delay_init();
    1ae6:	4b16      	ldr	r3, [pc, #88]	; (1b40 <main+0x64>)
    1ae8:	4798      	blx	r3
	

	neopixel_init();
    1aea:	4b16      	ldr	r3, [pc, #88]	; (1b44 <main+0x68>)
    1aec:	4798      	blx	r3
 */
__attribute__( ( always_inline ) ) __STATIC_INLINE uint32_t __get_PRIMASK(void)
{
  uint32_t result;

  __ASM volatile ("MRS %0, primask" : "=r" (result) );
    1aee:	f3ef 8310 	mrs	r3, PRIMASK
	
	//system_interrupt_enable_global();
	//cpu_irq_disable();
	bool inter;
	inter = system_interrupt_is_global_enabled();
	printf(" Interrups state: %s\n", inter?"1":"0");
    1af2:	2b00      	cmp	r3, #0
    1af4:	d013      	beq.n	1b1e <main+0x42>
    1af6:	4814      	ldr	r0, [pc, #80]	; (1b48 <main+0x6c>)
    1af8:	4914      	ldr	r1, [pc, #80]	; (1b4c <main+0x70>)
    1afa:	4b15      	ldr	r3, [pc, #84]	; (1b50 <main+0x74>)
    1afc:	4798      	blx	r3
	int delay = 30;
	int j= 0;
	int i = 20;
	int d = 5;
	uint8_t perm[7][3]={{1,0,0},{0,1,0},{0,0,1},{1,1,0},{0,1,1},{1,0,1},{1,1,1}};
	neo.numLeds = 1;
    1afe:	2201      	movs	r2, #1
    1b00:	4b14      	ldr	r3, [pc, #80]	; (1b54 <main+0x78>)
    1b02:	809a      	strh	r2, [r3, #4]
#include "neopixel_config.h"
#include "buzzer.h"
	
	
int main (void)
{
    1b04:	2400      	movs	r4, #0
	while (1)
	{
		
		for (int k=0;k<neo.numLeds;k++)
		{
			neopixel_setPixelColor(&neo,k,neopixelColor(i,i,0));	
    1b06:	4d13      	ldr	r5, [pc, #76]	; (1b54 <main+0x78>)
    1b08:	4e13      	ldr	r6, [pc, #76]	; (1b58 <main+0x7c>)
    1b0a:	4f14      	ldr	r7, [pc, #80]	; (1b5c <main+0x80>)
    1b0c:	b2a1      	uxth	r1, r4
    1b0e:	1c28      	adds	r0, r5, #0
    1b10:	1c32      	adds	r2, r6, #0
    1b12:	47b8      	blx	r7
	
	
	while (1)
	{
		
		for (int k=0;k<neo.numLeds;k++)
    1b14:	3401      	adds	r4, #1
    1b16:	88ab      	ldrh	r3, [r5, #4]
    1b18:	42a3      	cmp	r3, r4
    1b1a:	dcf7      	bgt.n	1b0c <main+0x30>
    1b1c:	e007      	b.n	1b2e <main+0x52>
	
	//system_interrupt_enable_global();
	//cpu_irq_disable();
	bool inter;
	inter = system_interrupt_is_global_enabled();
	printf(" Interrups state: %s\n", inter?"1":"0");
    1b1e:	480a      	ldr	r0, [pc, #40]	; (1b48 <main+0x6c>)
    1b20:	490f      	ldr	r1, [pc, #60]	; (1b60 <main+0x84>)
    1b22:	4b0b      	ldr	r3, [pc, #44]	; (1b50 <main+0x74>)
    1b24:	4798      	blx	r3
	int delay = 30;
	int j= 0;
	int i = 20;
	int d = 5;
	uint8_t perm[7][3]={{1,0,0},{0,1,0},{0,0,1},{1,1,0},{0,1,1},{1,0,1},{1,1,1}};
	neo.numLeds = 1;
    1b26:	2201      	movs	r2, #1
    1b28:	4b0a      	ldr	r3, [pc, #40]	; (1b54 <main+0x78>)
    1b2a:	809a      	strh	r2, [r3, #4]
    1b2c:	e7ea      	b.n	1b04 <main+0x28>
		//*perm[j][1];
		//*perm[j][2];	
		//neopixelShow(&neo);//16*perm[j][0],16*perm[j][1],16*perm[j][2]); //&neo
		j++;
		i=i+d;
		delay_ms(delay);
    1b2e:	201e      	movs	r0, #30
    1b30:	4b0c      	ldr	r3, [pc, #48]	; (1b64 <main+0x88>)
    1b32:	4798      	blx	r3
	
	

	
	
}
    1b34:	2000      	movs	r0, #0
    1b36:	bdf8      	pop	{r3, r4, r5, r6, r7, pc}
    1b38:	000018d5 	.word	0x000018d5
    1b3c:	000006b5 	.word	0x000006b5
    1b40:	00000115 	.word	0x00000115
    1b44:	00001abd 	.word	0x00001abd
    1b48:	00002d3c 	.word	0x00002d3c
    1b4c:	00002d54 	.word	0x00002d54
    1b50:	00001ea1 	.word	0x00001ea1
    1b54:	200001d8 	.word	0x200001d8
    1b58:	00141400 	.word	0x00141400
    1b5c:	00001aa1 	.word	0x00001aa1
    1b60:	00002d58 	.word	0x00002d58
    1b64:	00000151 	.word	0x00000151

00001b68 <__aeabi_uidiv>:
    1b68:	2200      	movs	r2, #0
    1b6a:	0843      	lsrs	r3, r0, #1
    1b6c:	428b      	cmp	r3, r1
    1b6e:	d374      	bcc.n	1c5a <__aeabi_uidiv+0xf2>
    1b70:	0903      	lsrs	r3, r0, #4
    1b72:	428b      	cmp	r3, r1
    1b74:	d35f      	bcc.n	1c36 <__aeabi_uidiv+0xce>
    1b76:	0a03      	lsrs	r3, r0, #8
    1b78:	428b      	cmp	r3, r1
    1b7a:	d344      	bcc.n	1c06 <__aeabi_uidiv+0x9e>
    1b7c:	0b03      	lsrs	r3, r0, #12
    1b7e:	428b      	cmp	r3, r1
    1b80:	d328      	bcc.n	1bd4 <__aeabi_uidiv+0x6c>
    1b82:	0c03      	lsrs	r3, r0, #16
    1b84:	428b      	cmp	r3, r1
    1b86:	d30d      	bcc.n	1ba4 <__aeabi_uidiv+0x3c>
    1b88:	22ff      	movs	r2, #255	; 0xff
    1b8a:	0209      	lsls	r1, r1, #8
    1b8c:	ba12      	rev	r2, r2
    1b8e:	0c03      	lsrs	r3, r0, #16
    1b90:	428b      	cmp	r3, r1
    1b92:	d302      	bcc.n	1b9a <__aeabi_uidiv+0x32>
    1b94:	1212      	asrs	r2, r2, #8
    1b96:	0209      	lsls	r1, r1, #8
    1b98:	d065      	beq.n	1c66 <__aeabi_uidiv+0xfe>
    1b9a:	0b03      	lsrs	r3, r0, #12
    1b9c:	428b      	cmp	r3, r1
    1b9e:	d319      	bcc.n	1bd4 <__aeabi_uidiv+0x6c>
    1ba0:	e000      	b.n	1ba4 <__aeabi_uidiv+0x3c>
    1ba2:	0a09      	lsrs	r1, r1, #8
    1ba4:	0bc3      	lsrs	r3, r0, #15
    1ba6:	428b      	cmp	r3, r1
    1ba8:	d301      	bcc.n	1bae <__aeabi_uidiv+0x46>
    1baa:	03cb      	lsls	r3, r1, #15
    1bac:	1ac0      	subs	r0, r0, r3
    1bae:	4152      	adcs	r2, r2
    1bb0:	0b83      	lsrs	r3, r0, #14
    1bb2:	428b      	cmp	r3, r1
    1bb4:	d301      	bcc.n	1bba <__aeabi_uidiv+0x52>
    1bb6:	038b      	lsls	r3, r1, #14
    1bb8:	1ac0      	subs	r0, r0, r3
    1bba:	4152      	adcs	r2, r2
    1bbc:	0b43      	lsrs	r3, r0, #13
    1bbe:	428b      	cmp	r3, r1
    1bc0:	d301      	bcc.n	1bc6 <__aeabi_uidiv+0x5e>
    1bc2:	034b      	lsls	r3, r1, #13
    1bc4:	1ac0      	subs	r0, r0, r3
    1bc6:	4152      	adcs	r2, r2
    1bc8:	0b03      	lsrs	r3, r0, #12
    1bca:	428b      	cmp	r3, r1
    1bcc:	d301      	bcc.n	1bd2 <__aeabi_uidiv+0x6a>
    1bce:	030b      	lsls	r3, r1, #12
    1bd0:	1ac0      	subs	r0, r0, r3
    1bd2:	4152      	adcs	r2, r2
    1bd4:	0ac3      	lsrs	r3, r0, #11
    1bd6:	428b      	cmp	r3, r1
    1bd8:	d301      	bcc.n	1bde <__aeabi_uidiv+0x76>
    1bda:	02cb      	lsls	r3, r1, #11
    1bdc:	1ac0      	subs	r0, r0, r3
    1bde:	4152      	adcs	r2, r2
    1be0:	0a83      	lsrs	r3, r0, #10
    1be2:	428b      	cmp	r3, r1
    1be4:	d301      	bcc.n	1bea <__aeabi_uidiv+0x82>
    1be6:	028b      	lsls	r3, r1, #10
    1be8:	1ac0      	subs	r0, r0, r3
    1bea:	4152      	adcs	r2, r2
    1bec:	0a43      	lsrs	r3, r0, #9
    1bee:	428b      	cmp	r3, r1
    1bf0:	d301      	bcc.n	1bf6 <__aeabi_uidiv+0x8e>
    1bf2:	024b      	lsls	r3, r1, #9
    1bf4:	1ac0      	subs	r0, r0, r3
    1bf6:	4152      	adcs	r2, r2
    1bf8:	0a03      	lsrs	r3, r0, #8
    1bfa:	428b      	cmp	r3, r1
    1bfc:	d301      	bcc.n	1c02 <__aeabi_uidiv+0x9a>
    1bfe:	020b      	lsls	r3, r1, #8
    1c00:	1ac0      	subs	r0, r0, r3
    1c02:	4152      	adcs	r2, r2
    1c04:	d2cd      	bcs.n	1ba2 <__aeabi_uidiv+0x3a>
    1c06:	09c3      	lsrs	r3, r0, #7
    1c08:	428b      	cmp	r3, r1
    1c0a:	d301      	bcc.n	1c10 <__aeabi_uidiv+0xa8>
    1c0c:	01cb      	lsls	r3, r1, #7
    1c0e:	1ac0      	subs	r0, r0, r3
    1c10:	4152      	adcs	r2, r2
    1c12:	0983      	lsrs	r3, r0, #6
    1c14:	428b      	cmp	r3, r1
    1c16:	d301      	bcc.n	1c1c <__aeabi_uidiv+0xb4>
    1c18:	018b      	lsls	r3, r1, #6
    1c1a:	1ac0      	subs	r0, r0, r3
    1c1c:	4152      	adcs	r2, r2
    1c1e:	0943      	lsrs	r3, r0, #5
    1c20:	428b      	cmp	r3, r1
    1c22:	d301      	bcc.n	1c28 <__aeabi_uidiv+0xc0>
    1c24:	014b      	lsls	r3, r1, #5
    1c26:	1ac0      	subs	r0, r0, r3
    1c28:	4152      	adcs	r2, r2
    1c2a:	0903      	lsrs	r3, r0, #4
    1c2c:	428b      	cmp	r3, r1
    1c2e:	d301      	bcc.n	1c34 <__aeabi_uidiv+0xcc>
    1c30:	010b      	lsls	r3, r1, #4
    1c32:	1ac0      	subs	r0, r0, r3
    1c34:	4152      	adcs	r2, r2
    1c36:	08c3      	lsrs	r3, r0, #3
    1c38:	428b      	cmp	r3, r1
    1c3a:	d301      	bcc.n	1c40 <__aeabi_uidiv+0xd8>
    1c3c:	00cb      	lsls	r3, r1, #3
    1c3e:	1ac0      	subs	r0, r0, r3
    1c40:	4152      	adcs	r2, r2
    1c42:	0883      	lsrs	r3, r0, #2
    1c44:	428b      	cmp	r3, r1
    1c46:	d301      	bcc.n	1c4c <__aeabi_uidiv+0xe4>
    1c48:	008b      	lsls	r3, r1, #2
    1c4a:	1ac0      	subs	r0, r0, r3
    1c4c:	4152      	adcs	r2, r2
    1c4e:	0843      	lsrs	r3, r0, #1
    1c50:	428b      	cmp	r3, r1
    1c52:	d301      	bcc.n	1c58 <__aeabi_uidiv+0xf0>
    1c54:	004b      	lsls	r3, r1, #1
    1c56:	1ac0      	subs	r0, r0, r3
    1c58:	4152      	adcs	r2, r2
    1c5a:	1a41      	subs	r1, r0, r1
    1c5c:	d200      	bcs.n	1c60 <__aeabi_uidiv+0xf8>
    1c5e:	4601      	mov	r1, r0
    1c60:	4152      	adcs	r2, r2
    1c62:	4610      	mov	r0, r2
    1c64:	4770      	bx	lr
    1c66:	e7ff      	b.n	1c68 <__aeabi_uidiv+0x100>
    1c68:	b501      	push	{r0, lr}
    1c6a:	2000      	movs	r0, #0
    1c6c:	f000 f80c 	bl	1c88 <__aeabi_idiv0>
    1c70:	bd02      	pop	{r1, pc}
    1c72:	46c0      	nop			; (mov r8, r8)

00001c74 <__aeabi_uidivmod>:
    1c74:	2900      	cmp	r1, #0
    1c76:	d0f7      	beq.n	1c68 <__aeabi_uidiv+0x100>
    1c78:	b503      	push	{r0, r1, lr}
    1c7a:	f7ff ff75 	bl	1b68 <__aeabi_uidiv>
    1c7e:	bc0e      	pop	{r1, r2, r3}
    1c80:	4342      	muls	r2, r0
    1c82:	1a89      	subs	r1, r1, r2
    1c84:	4718      	bx	r3
    1c86:	46c0      	nop			; (mov r8, r8)

00001c88 <__aeabi_idiv0>:
    1c88:	4770      	bx	lr
    1c8a:	46c0      	nop			; (mov r8, r8)

00001c8c <__aeabi_lmul>:
    1c8c:	b5f0      	push	{r4, r5, r6, r7, lr}
    1c8e:	464f      	mov	r7, r9
    1c90:	4646      	mov	r6, r8
    1c92:	0405      	lsls	r5, r0, #16
    1c94:	0c2d      	lsrs	r5, r5, #16
    1c96:	1c2c      	adds	r4, r5, #0
    1c98:	b4c0      	push	{r6, r7}
    1c9a:	0417      	lsls	r7, r2, #16
    1c9c:	0c16      	lsrs	r6, r2, #16
    1c9e:	0c3f      	lsrs	r7, r7, #16
    1ca0:	4699      	mov	r9, r3
    1ca2:	0c03      	lsrs	r3, r0, #16
    1ca4:	437c      	muls	r4, r7
    1ca6:	4375      	muls	r5, r6
    1ca8:	435f      	muls	r7, r3
    1caa:	4373      	muls	r3, r6
    1cac:	197d      	adds	r5, r7, r5
    1cae:	0c26      	lsrs	r6, r4, #16
    1cb0:	19ad      	adds	r5, r5, r6
    1cb2:	469c      	mov	ip, r3
    1cb4:	42af      	cmp	r7, r5
    1cb6:	d903      	bls.n	1cc0 <__aeabi_lmul+0x34>
    1cb8:	2380      	movs	r3, #128	; 0x80
    1cba:	025b      	lsls	r3, r3, #9
    1cbc:	4698      	mov	r8, r3
    1cbe:	44c4      	add	ip, r8
    1cc0:	464b      	mov	r3, r9
    1cc2:	4351      	muls	r1, r2
    1cc4:	4343      	muls	r3, r0
    1cc6:	0424      	lsls	r4, r4, #16
    1cc8:	0c2e      	lsrs	r6, r5, #16
    1cca:	0c24      	lsrs	r4, r4, #16
    1ccc:	042d      	lsls	r5, r5, #16
    1cce:	4466      	add	r6, ip
    1cd0:	192c      	adds	r4, r5, r4
    1cd2:	1859      	adds	r1, r3, r1
    1cd4:	1989      	adds	r1, r1, r6
    1cd6:	1c20      	adds	r0, r4, #0
    1cd8:	bc0c      	pop	{r2, r3}
    1cda:	4690      	mov	r8, r2
    1cdc:	4699      	mov	r9, r3
    1cde:	bdf0      	pop	{r4, r5, r6, r7, pc}

00001ce0 <__libc_init_array>:
    1ce0:	4b0e      	ldr	r3, [pc, #56]	; (1d1c <__libc_init_array+0x3c>)
    1ce2:	b570      	push	{r4, r5, r6, lr}
    1ce4:	2500      	movs	r5, #0
    1ce6:	1c1e      	adds	r6, r3, #0
    1ce8:	4c0d      	ldr	r4, [pc, #52]	; (1d20 <__libc_init_array+0x40>)
    1cea:	1ae4      	subs	r4, r4, r3
    1cec:	10a4      	asrs	r4, r4, #2
    1cee:	42a5      	cmp	r5, r4
    1cf0:	d004      	beq.n	1cfc <__libc_init_array+0x1c>
    1cf2:	00ab      	lsls	r3, r5, #2
    1cf4:	58f3      	ldr	r3, [r6, r3]
    1cf6:	4798      	blx	r3
    1cf8:	3501      	adds	r5, #1
    1cfa:	e7f8      	b.n	1cee <__libc_init_array+0xe>
    1cfc:	f001 f8f8 	bl	2ef0 <_init>
    1d00:	4b08      	ldr	r3, [pc, #32]	; (1d24 <__libc_init_array+0x44>)
    1d02:	2500      	movs	r5, #0
    1d04:	1c1e      	adds	r6, r3, #0
    1d06:	4c08      	ldr	r4, [pc, #32]	; (1d28 <__libc_init_array+0x48>)
    1d08:	1ae4      	subs	r4, r4, r3
    1d0a:	10a4      	asrs	r4, r4, #2
    1d0c:	42a5      	cmp	r5, r4
    1d0e:	d004      	beq.n	1d1a <__libc_init_array+0x3a>
    1d10:	00ab      	lsls	r3, r5, #2
    1d12:	58f3      	ldr	r3, [r6, r3]
    1d14:	4798      	blx	r3
    1d16:	3501      	adds	r5, #1
    1d18:	e7f8      	b.n	1d0c <__libc_init_array+0x2c>
    1d1a:	bd70      	pop	{r4, r5, r6, pc}
    1d1c:	00002efc 	.word	0x00002efc
    1d20:	00002efc 	.word	0x00002efc
    1d24:	00002efc 	.word	0x00002efc
    1d28:	00002f00 	.word	0x00002f00

00001d2c <malloc>:
    1d2c:	b508      	push	{r3, lr}
    1d2e:	4b03      	ldr	r3, [pc, #12]	; (1d3c <malloc+0x10>)
    1d30:	1c01      	adds	r1, r0, #0
    1d32:	6818      	ldr	r0, [r3, #0]
    1d34:	f000 f85c 	bl	1df0 <_malloc_r>
    1d38:	bd08      	pop	{r3, pc}
    1d3a:	46c0      	nop			; (mov r8, r8)
    1d3c:	2000006c 	.word	0x2000006c

00001d40 <memcpy>:
    1d40:	2300      	movs	r3, #0
    1d42:	b510      	push	{r4, lr}
    1d44:	4293      	cmp	r3, r2
    1d46:	d003      	beq.n	1d50 <memcpy+0x10>
    1d48:	5ccc      	ldrb	r4, [r1, r3]
    1d4a:	54c4      	strb	r4, [r0, r3]
    1d4c:	3301      	adds	r3, #1
    1d4e:	e7f9      	b.n	1d44 <memcpy+0x4>
    1d50:	bd10      	pop	{r4, pc}

00001d52 <memset>:
    1d52:	1c03      	adds	r3, r0, #0
    1d54:	1882      	adds	r2, r0, r2
    1d56:	4293      	cmp	r3, r2
    1d58:	d002      	beq.n	1d60 <memset+0xe>
    1d5a:	7019      	strb	r1, [r3, #0]
    1d5c:	3301      	adds	r3, #1
    1d5e:	e7fa      	b.n	1d56 <memset+0x4>
    1d60:	4770      	bx	lr
	...

00001d64 <_free_r>:
    1d64:	b530      	push	{r4, r5, lr}
    1d66:	2900      	cmp	r1, #0
    1d68:	d03e      	beq.n	1de8 <_free_r+0x84>
    1d6a:	3904      	subs	r1, #4
    1d6c:	680b      	ldr	r3, [r1, #0]
    1d6e:	2b00      	cmp	r3, #0
    1d70:	da00      	bge.n	1d74 <_free_r+0x10>
    1d72:	18c9      	adds	r1, r1, r3
    1d74:	4a1d      	ldr	r2, [pc, #116]	; (1dec <_free_r+0x88>)
    1d76:	6813      	ldr	r3, [r2, #0]
    1d78:	1c14      	adds	r4, r2, #0
    1d7a:	2b00      	cmp	r3, #0
    1d7c:	d102      	bne.n	1d84 <_free_r+0x20>
    1d7e:	604b      	str	r3, [r1, #4]
    1d80:	6011      	str	r1, [r2, #0]
    1d82:	e031      	b.n	1de8 <_free_r+0x84>
    1d84:	4299      	cmp	r1, r3
    1d86:	d20d      	bcs.n	1da4 <_free_r+0x40>
    1d88:	6808      	ldr	r0, [r1, #0]
    1d8a:	180a      	adds	r2, r1, r0
    1d8c:	429a      	cmp	r2, r3
    1d8e:	d103      	bne.n	1d98 <_free_r+0x34>
    1d90:	6813      	ldr	r3, [r2, #0]
    1d92:	18c3      	adds	r3, r0, r3
    1d94:	600b      	str	r3, [r1, #0]
    1d96:	6853      	ldr	r3, [r2, #4]
    1d98:	604b      	str	r3, [r1, #4]
    1d9a:	6021      	str	r1, [r4, #0]
    1d9c:	e024      	b.n	1de8 <_free_r+0x84>
    1d9e:	428a      	cmp	r2, r1
    1da0:	d803      	bhi.n	1daa <_free_r+0x46>
    1da2:	1c13      	adds	r3, r2, #0
    1da4:	685a      	ldr	r2, [r3, #4]
    1da6:	2a00      	cmp	r2, #0
    1da8:	d1f9      	bne.n	1d9e <_free_r+0x3a>
    1daa:	681d      	ldr	r5, [r3, #0]
    1dac:	195c      	adds	r4, r3, r5
    1dae:	428c      	cmp	r4, r1
    1db0:	d10b      	bne.n	1dca <_free_r+0x66>
    1db2:	6809      	ldr	r1, [r1, #0]
    1db4:	1869      	adds	r1, r5, r1
    1db6:	1858      	adds	r0, r3, r1
    1db8:	6019      	str	r1, [r3, #0]
    1dba:	4290      	cmp	r0, r2
    1dbc:	d114      	bne.n	1de8 <_free_r+0x84>
    1dbe:	6810      	ldr	r0, [r2, #0]
    1dc0:	6852      	ldr	r2, [r2, #4]
    1dc2:	1809      	adds	r1, r1, r0
    1dc4:	6019      	str	r1, [r3, #0]
    1dc6:	605a      	str	r2, [r3, #4]
    1dc8:	e00e      	b.n	1de8 <_free_r+0x84>
    1dca:	428c      	cmp	r4, r1
    1dcc:	d902      	bls.n	1dd4 <_free_r+0x70>
    1dce:	230c      	movs	r3, #12
    1dd0:	6003      	str	r3, [r0, #0]
    1dd2:	e009      	b.n	1de8 <_free_r+0x84>
    1dd4:	6808      	ldr	r0, [r1, #0]
    1dd6:	180c      	adds	r4, r1, r0
    1dd8:	4294      	cmp	r4, r2
    1dda:	d103      	bne.n	1de4 <_free_r+0x80>
    1ddc:	6814      	ldr	r4, [r2, #0]
    1dde:	6852      	ldr	r2, [r2, #4]
    1de0:	1900      	adds	r0, r0, r4
    1de2:	6008      	str	r0, [r1, #0]
    1de4:	604a      	str	r2, [r1, #4]
    1de6:	6059      	str	r1, [r3, #4]
    1de8:	bd30      	pop	{r4, r5, pc}
    1dea:	46c0      	nop			; (mov r8, r8)
    1dec:	200001a4 	.word	0x200001a4

00001df0 <_malloc_r>:
    1df0:	2303      	movs	r3, #3
    1df2:	b570      	push	{r4, r5, r6, lr}
    1df4:	1ccc      	adds	r4, r1, #3
    1df6:	439c      	bics	r4, r3
    1df8:	3408      	adds	r4, #8
    1dfa:	1c05      	adds	r5, r0, #0
    1dfc:	2c0c      	cmp	r4, #12
    1dfe:	d201      	bcs.n	1e04 <_malloc_r+0x14>
    1e00:	240c      	movs	r4, #12
    1e02:	e005      	b.n	1e10 <_malloc_r+0x20>
    1e04:	2c00      	cmp	r4, #0
    1e06:	da03      	bge.n	1e10 <_malloc_r+0x20>
    1e08:	230c      	movs	r3, #12
    1e0a:	2000      	movs	r0, #0
    1e0c:	602b      	str	r3, [r5, #0]
    1e0e:	e042      	b.n	1e96 <_malloc_r+0xa6>
    1e10:	428c      	cmp	r4, r1
    1e12:	d3f9      	bcc.n	1e08 <_malloc_r+0x18>
    1e14:	4a20      	ldr	r2, [pc, #128]	; (1e98 <_malloc_r+0xa8>)
    1e16:	6813      	ldr	r3, [r2, #0]
    1e18:	1c10      	adds	r0, r2, #0
    1e1a:	1c19      	adds	r1, r3, #0
    1e1c:	2900      	cmp	r1, #0
    1e1e:	d013      	beq.n	1e48 <_malloc_r+0x58>
    1e20:	680a      	ldr	r2, [r1, #0]
    1e22:	1b12      	subs	r2, r2, r4
    1e24:	d40d      	bmi.n	1e42 <_malloc_r+0x52>
    1e26:	2a0b      	cmp	r2, #11
    1e28:	d902      	bls.n	1e30 <_malloc_r+0x40>
    1e2a:	600a      	str	r2, [r1, #0]
    1e2c:	188b      	adds	r3, r1, r2
    1e2e:	e01f      	b.n	1e70 <_malloc_r+0x80>
    1e30:	428b      	cmp	r3, r1
    1e32:	d102      	bne.n	1e3a <_malloc_r+0x4a>
    1e34:	685a      	ldr	r2, [r3, #4]
    1e36:	6002      	str	r2, [r0, #0]
    1e38:	e01b      	b.n	1e72 <_malloc_r+0x82>
    1e3a:	684a      	ldr	r2, [r1, #4]
    1e3c:	605a      	str	r2, [r3, #4]
    1e3e:	1c0b      	adds	r3, r1, #0
    1e40:	e017      	b.n	1e72 <_malloc_r+0x82>
    1e42:	1c0b      	adds	r3, r1, #0
    1e44:	6849      	ldr	r1, [r1, #4]
    1e46:	e7e9      	b.n	1e1c <_malloc_r+0x2c>
    1e48:	4e14      	ldr	r6, [pc, #80]	; (1e9c <_malloc_r+0xac>)
    1e4a:	6833      	ldr	r3, [r6, #0]
    1e4c:	2b00      	cmp	r3, #0
    1e4e:	d103      	bne.n	1e58 <_malloc_r+0x68>
    1e50:	1c28      	adds	r0, r5, #0
    1e52:	f000 f83f 	bl	1ed4 <_sbrk_r>
    1e56:	6030      	str	r0, [r6, #0]
    1e58:	1c28      	adds	r0, r5, #0
    1e5a:	1c21      	adds	r1, r4, #0
    1e5c:	f000 f83a 	bl	1ed4 <_sbrk_r>
    1e60:	1c03      	adds	r3, r0, #0
    1e62:	1c42      	adds	r2, r0, #1
    1e64:	d0d0      	beq.n	1e08 <_malloc_r+0x18>
    1e66:	2203      	movs	r2, #3
    1e68:	1cc6      	adds	r6, r0, #3
    1e6a:	4396      	bics	r6, r2
    1e6c:	4286      	cmp	r6, r0
    1e6e:	d10a      	bne.n	1e86 <_malloc_r+0x96>
    1e70:	601c      	str	r4, [r3, #0]
    1e72:	1c18      	adds	r0, r3, #0
    1e74:	2107      	movs	r1, #7
    1e76:	300b      	adds	r0, #11
    1e78:	1d1a      	adds	r2, r3, #4
    1e7a:	4388      	bics	r0, r1
    1e7c:	1a82      	subs	r2, r0, r2
    1e7e:	d00a      	beq.n	1e96 <_malloc_r+0xa6>
    1e80:	4251      	negs	r1, r2
    1e82:	5099      	str	r1, [r3, r2]
    1e84:	e007      	b.n	1e96 <_malloc_r+0xa6>
    1e86:	1a31      	subs	r1, r6, r0
    1e88:	1c28      	adds	r0, r5, #0
    1e8a:	f000 f823 	bl	1ed4 <_sbrk_r>
    1e8e:	1c43      	adds	r3, r0, #1
    1e90:	d0ba      	beq.n	1e08 <_malloc_r+0x18>
    1e92:	1c33      	adds	r3, r6, #0
    1e94:	e7ec      	b.n	1e70 <_malloc_r+0x80>
    1e96:	bd70      	pop	{r4, r5, r6, pc}
    1e98:	200001a4 	.word	0x200001a4
    1e9c:	200001a0 	.word	0x200001a0

00001ea0 <iprintf>:
    1ea0:	b40f      	push	{r0, r1, r2, r3}
    1ea2:	4b0b      	ldr	r3, [pc, #44]	; (1ed0 <iprintf+0x30>)
    1ea4:	b513      	push	{r0, r1, r4, lr}
    1ea6:	681c      	ldr	r4, [r3, #0]
    1ea8:	2c00      	cmp	r4, #0
    1eaa:	d005      	beq.n	1eb8 <iprintf+0x18>
    1eac:	69a3      	ldr	r3, [r4, #24]
    1eae:	2b00      	cmp	r3, #0
    1eb0:	d102      	bne.n	1eb8 <iprintf+0x18>
    1eb2:	1c20      	adds	r0, r4, #0
    1eb4:	f000 f9a8 	bl	2208 <__sinit>
    1eb8:	ab05      	add	r3, sp, #20
    1eba:	1c20      	adds	r0, r4, #0
    1ebc:	68a1      	ldr	r1, [r4, #8]
    1ebe:	9a04      	ldr	r2, [sp, #16]
    1ec0:	9301      	str	r3, [sp, #4]
    1ec2:	f000 fa59 	bl	2378 <_vfiprintf_r>
    1ec6:	bc16      	pop	{r1, r2, r4}
    1ec8:	bc08      	pop	{r3}
    1eca:	b004      	add	sp, #16
    1ecc:	4718      	bx	r3
    1ece:	46c0      	nop			; (mov r8, r8)
    1ed0:	2000006c 	.word	0x2000006c

00001ed4 <_sbrk_r>:
    1ed4:	b538      	push	{r3, r4, r5, lr}
    1ed6:	2300      	movs	r3, #0
    1ed8:	4c06      	ldr	r4, [pc, #24]	; (1ef4 <_sbrk_r+0x20>)
    1eda:	1c05      	adds	r5, r0, #0
    1edc:	1c08      	adds	r0, r1, #0
    1ede:	6023      	str	r3, [r4, #0]
    1ee0:	f7ff fd8c 	bl	19fc <_sbrk>
    1ee4:	1c43      	adds	r3, r0, #1
    1ee6:	d103      	bne.n	1ef0 <_sbrk_r+0x1c>
    1ee8:	6823      	ldr	r3, [r4, #0]
    1eea:	2b00      	cmp	r3, #0
    1eec:	d000      	beq.n	1ef0 <_sbrk_r+0x1c>
    1eee:	602b      	str	r3, [r5, #0]
    1ef0:	bd38      	pop	{r3, r4, r5, pc}
    1ef2:	46c0      	nop			; (mov r8, r8)
    1ef4:	200001fc 	.word	0x200001fc

00001ef8 <setbuf>:
    1ef8:	b508      	push	{r3, lr}
    1efa:	424a      	negs	r2, r1
    1efc:	414a      	adcs	r2, r1
    1efe:	2380      	movs	r3, #128	; 0x80
    1f00:	0052      	lsls	r2, r2, #1
    1f02:	00db      	lsls	r3, r3, #3
    1f04:	f000 f802 	bl	1f0c <setvbuf>
    1f08:	bd08      	pop	{r3, pc}
	...

00001f0c <setvbuf>:
    1f0c:	b5f7      	push	{r0, r1, r2, r4, r5, r6, r7, lr}
    1f0e:	1c1e      	adds	r6, r3, #0
    1f10:	4b3c      	ldr	r3, [pc, #240]	; (2004 <STACK_SIZE+0x4>)
    1f12:	1c04      	adds	r4, r0, #0
    1f14:	681d      	ldr	r5, [r3, #0]
    1f16:	1c0f      	adds	r7, r1, #0
    1f18:	9201      	str	r2, [sp, #4]
    1f1a:	2d00      	cmp	r5, #0
    1f1c:	d005      	beq.n	1f2a <setvbuf+0x1e>
    1f1e:	69ab      	ldr	r3, [r5, #24]
    1f20:	2b00      	cmp	r3, #0
    1f22:	d102      	bne.n	1f2a <setvbuf+0x1e>
    1f24:	1c28      	adds	r0, r5, #0
    1f26:	f000 f96f 	bl	2208 <__sinit>
    1f2a:	4b37      	ldr	r3, [pc, #220]	; (2008 <STACK_SIZE+0x8>)
    1f2c:	429c      	cmp	r4, r3
    1f2e:	d101      	bne.n	1f34 <setvbuf+0x28>
    1f30:	686c      	ldr	r4, [r5, #4]
    1f32:	e008      	b.n	1f46 <setvbuf+0x3a>
    1f34:	4b35      	ldr	r3, [pc, #212]	; (200c <STACK_SIZE+0xc>)
    1f36:	429c      	cmp	r4, r3
    1f38:	d101      	bne.n	1f3e <setvbuf+0x32>
    1f3a:	68ac      	ldr	r4, [r5, #8]
    1f3c:	e003      	b.n	1f46 <setvbuf+0x3a>
    1f3e:	4b34      	ldr	r3, [pc, #208]	; (2010 <STACK_SIZE+0x10>)
    1f40:	429c      	cmp	r4, r3
    1f42:	d100      	bne.n	1f46 <setvbuf+0x3a>
    1f44:	68ec      	ldr	r4, [r5, #12]
    1f46:	9b01      	ldr	r3, [sp, #4]
    1f48:	2b02      	cmp	r3, #2
    1f4a:	d858      	bhi.n	1ffe <setvbuf+0xf2>
    1f4c:	2e00      	cmp	r6, #0
    1f4e:	db56      	blt.n	1ffe <setvbuf+0xf2>
    1f50:	1c28      	adds	r0, r5, #0
    1f52:	1c21      	adds	r1, r4, #0
    1f54:	f000 f8ea 	bl	212c <_fflush_r>
    1f58:	2300      	movs	r3, #0
    1f5a:	6063      	str	r3, [r4, #4]
    1f5c:	61a3      	str	r3, [r4, #24]
    1f5e:	89a3      	ldrh	r3, [r4, #12]
    1f60:	061b      	lsls	r3, r3, #24
    1f62:	d503      	bpl.n	1f6c <setvbuf+0x60>
    1f64:	1c28      	adds	r0, r5, #0
    1f66:	6921      	ldr	r1, [r4, #16]
    1f68:	f7ff fefc 	bl	1d64 <_free_r>
    1f6c:	2283      	movs	r2, #131	; 0x83
    1f6e:	89a3      	ldrh	r3, [r4, #12]
    1f70:	4393      	bics	r3, r2
    1f72:	81a3      	strh	r3, [r4, #12]
    1f74:	9b01      	ldr	r3, [sp, #4]
    1f76:	2b02      	cmp	r3, #2
    1f78:	d013      	beq.n	1fa2 <setvbuf+0x96>
    1f7a:	2f00      	cmp	r7, #0
    1f7c:	d125      	bne.n	1fca <setvbuf+0xbe>
    1f7e:	2e00      	cmp	r6, #0
    1f80:	d101      	bne.n	1f86 <setvbuf+0x7a>
    1f82:	2680      	movs	r6, #128	; 0x80
    1f84:	00f6      	lsls	r6, r6, #3
    1f86:	1c30      	adds	r0, r6, #0
    1f88:	f7ff fed0 	bl	1d2c <malloc>
    1f8c:	1e07      	subs	r7, r0, #0
    1f8e:	d118      	bne.n	1fc2 <setvbuf+0xb6>
    1f90:	2080      	movs	r0, #128	; 0x80
    1f92:	00c0      	lsls	r0, r0, #3
    1f94:	f7ff feca 	bl	1d2c <malloc>
    1f98:	1e07      	subs	r7, r0, #0
    1f9a:	d110      	bne.n	1fbe <setvbuf+0xb2>
    1f9c:	2001      	movs	r0, #1
    1f9e:	4240      	negs	r0, r0
    1fa0:	e000      	b.n	1fa4 <setvbuf+0x98>
    1fa2:	2000      	movs	r0, #0
    1fa4:	2202      	movs	r2, #2
    1fa6:	89a3      	ldrh	r3, [r4, #12]
    1fa8:	4313      	orrs	r3, r2
    1faa:	81a3      	strh	r3, [r4, #12]
    1fac:	2300      	movs	r3, #0
    1fae:	60a3      	str	r3, [r4, #8]
    1fb0:	1c23      	adds	r3, r4, #0
    1fb2:	3347      	adds	r3, #71	; 0x47
    1fb4:	6023      	str	r3, [r4, #0]
    1fb6:	6123      	str	r3, [r4, #16]
    1fb8:	2301      	movs	r3, #1
    1fba:	6163      	str	r3, [r4, #20]
    1fbc:	e021      	b.n	2002 <STACK_SIZE+0x2>
    1fbe:	2680      	movs	r6, #128	; 0x80
    1fc0:	00f6      	lsls	r6, r6, #3
    1fc2:	2280      	movs	r2, #128	; 0x80
    1fc4:	89a3      	ldrh	r3, [r4, #12]
    1fc6:	4313      	orrs	r3, r2
    1fc8:	81a3      	strh	r3, [r4, #12]
    1fca:	9b01      	ldr	r3, [sp, #4]
    1fcc:	2b01      	cmp	r3, #1
    1fce:	d105      	bne.n	1fdc <setvbuf+0xd0>
    1fd0:	89a3      	ldrh	r3, [r4, #12]
    1fd2:	9a01      	ldr	r2, [sp, #4]
    1fd4:	431a      	orrs	r2, r3
    1fd6:	4273      	negs	r3, r6
    1fd8:	81a2      	strh	r2, [r4, #12]
    1fda:	61a3      	str	r3, [r4, #24]
    1fdc:	4b0d      	ldr	r3, [pc, #52]	; (2014 <STACK_SIZE+0x14>)
    1fde:	2000      	movs	r0, #0
    1fe0:	62ab      	str	r3, [r5, #40]	; 0x28
    1fe2:	89a2      	ldrh	r2, [r4, #12]
    1fe4:	6027      	str	r7, [r4, #0]
    1fe6:	6127      	str	r7, [r4, #16]
    1fe8:	6166      	str	r6, [r4, #20]
    1fea:	0713      	lsls	r3, r2, #28
    1fec:	d509      	bpl.n	2002 <STACK_SIZE+0x2>
    1fee:	2303      	movs	r3, #3
    1ff0:	401a      	ands	r2, r3
    1ff2:	4253      	negs	r3, r2
    1ff4:	4153      	adcs	r3, r2
    1ff6:	425b      	negs	r3, r3
    1ff8:	401e      	ands	r6, r3
    1ffa:	60a6      	str	r6, [r4, #8]
    1ffc:	e001      	b.n	2002 <STACK_SIZE+0x2>
    1ffe:	2001      	movs	r0, #1
    2000:	4240      	negs	r0, r0
    2002:	bdfe      	pop	{r1, r2, r3, r4, r5, r6, r7, pc}
    2004:	2000006c 	.word	0x2000006c
    2008:	00002e5c 	.word	0x00002e5c
    200c:	00002e7c 	.word	0x00002e7c
    2010:	00002e9c 	.word	0x00002e9c
    2014:	00002185 	.word	0x00002185

00002018 <__sflush_r>:
    2018:	b5f7      	push	{r0, r1, r2, r4, r5, r6, r7, lr}
    201a:	898a      	ldrh	r2, [r1, #12]
    201c:	1c05      	adds	r5, r0, #0
    201e:	1c0c      	adds	r4, r1, #0
    2020:	0713      	lsls	r3, r2, #28
    2022:	d45e      	bmi.n	20e2 <__sflush_r+0xca>
    2024:	684b      	ldr	r3, [r1, #4]
    2026:	2b00      	cmp	r3, #0
    2028:	dc02      	bgt.n	2030 <__sflush_r+0x18>
    202a:	6c0b      	ldr	r3, [r1, #64]	; 0x40
    202c:	2b00      	cmp	r3, #0
    202e:	dd1a      	ble.n	2066 <__sflush_r+0x4e>
    2030:	6ae7      	ldr	r7, [r4, #44]	; 0x2c
    2032:	2f00      	cmp	r7, #0
    2034:	d017      	beq.n	2066 <__sflush_r+0x4e>
    2036:	2300      	movs	r3, #0
    2038:	682e      	ldr	r6, [r5, #0]
    203a:	602b      	str	r3, [r5, #0]
    203c:	2380      	movs	r3, #128	; 0x80
    203e:	015b      	lsls	r3, r3, #5
    2040:	401a      	ands	r2, r3
    2042:	d001      	beq.n	2048 <__sflush_r+0x30>
    2044:	6d62      	ldr	r2, [r4, #84]	; 0x54
    2046:	e015      	b.n	2074 <__sflush_r+0x5c>
    2048:	1c28      	adds	r0, r5, #0
    204a:	6a21      	ldr	r1, [r4, #32]
    204c:	2301      	movs	r3, #1
    204e:	47b8      	blx	r7
    2050:	1c02      	adds	r2, r0, #0
    2052:	1c43      	adds	r3, r0, #1
    2054:	d10e      	bne.n	2074 <__sflush_r+0x5c>
    2056:	682b      	ldr	r3, [r5, #0]
    2058:	2b00      	cmp	r3, #0
    205a:	d00b      	beq.n	2074 <__sflush_r+0x5c>
    205c:	2b1d      	cmp	r3, #29
    205e:	d001      	beq.n	2064 <__sflush_r+0x4c>
    2060:	2b16      	cmp	r3, #22
    2062:	d102      	bne.n	206a <__sflush_r+0x52>
    2064:	602e      	str	r6, [r5, #0]
    2066:	2000      	movs	r0, #0
    2068:	e05e      	b.n	2128 <__sflush_r+0x110>
    206a:	2140      	movs	r1, #64	; 0x40
    206c:	89a3      	ldrh	r3, [r4, #12]
    206e:	430b      	orrs	r3, r1
    2070:	81a3      	strh	r3, [r4, #12]
    2072:	e059      	b.n	2128 <__sflush_r+0x110>
    2074:	89a3      	ldrh	r3, [r4, #12]
    2076:	075b      	lsls	r3, r3, #29
    2078:	d506      	bpl.n	2088 <__sflush_r+0x70>
    207a:	6863      	ldr	r3, [r4, #4]
    207c:	1ad2      	subs	r2, r2, r3
    207e:	6b63      	ldr	r3, [r4, #52]	; 0x34
    2080:	2b00      	cmp	r3, #0
    2082:	d001      	beq.n	2088 <__sflush_r+0x70>
    2084:	6c23      	ldr	r3, [r4, #64]	; 0x40
    2086:	1ad2      	subs	r2, r2, r3
    2088:	2300      	movs	r3, #0
    208a:	1c28      	adds	r0, r5, #0
    208c:	6a21      	ldr	r1, [r4, #32]
    208e:	6ae7      	ldr	r7, [r4, #44]	; 0x2c
    2090:	47b8      	blx	r7
    2092:	89a3      	ldrh	r3, [r4, #12]
    2094:	1c42      	adds	r2, r0, #1
    2096:	d106      	bne.n	20a6 <__sflush_r+0x8e>
    2098:	682a      	ldr	r2, [r5, #0]
    209a:	2a00      	cmp	r2, #0
    209c:	d003      	beq.n	20a6 <__sflush_r+0x8e>
    209e:	2a1d      	cmp	r2, #29
    20a0:	d001      	beq.n	20a6 <__sflush_r+0x8e>
    20a2:	2a16      	cmp	r2, #22
    20a4:	d119      	bne.n	20da <__sflush_r+0xc2>
    20a6:	2200      	movs	r2, #0
    20a8:	6062      	str	r2, [r4, #4]
    20aa:	6922      	ldr	r2, [r4, #16]
    20ac:	6022      	str	r2, [r4, #0]
    20ae:	04db      	lsls	r3, r3, #19
    20b0:	d505      	bpl.n	20be <__sflush_r+0xa6>
    20b2:	1c43      	adds	r3, r0, #1
    20b4:	d102      	bne.n	20bc <__sflush_r+0xa4>
    20b6:	682b      	ldr	r3, [r5, #0]
    20b8:	2b00      	cmp	r3, #0
    20ba:	d100      	bne.n	20be <__sflush_r+0xa6>
    20bc:	6560      	str	r0, [r4, #84]	; 0x54
    20be:	6b61      	ldr	r1, [r4, #52]	; 0x34
    20c0:	602e      	str	r6, [r5, #0]
    20c2:	2900      	cmp	r1, #0
    20c4:	d0cf      	beq.n	2066 <__sflush_r+0x4e>
    20c6:	1c23      	adds	r3, r4, #0
    20c8:	3344      	adds	r3, #68	; 0x44
    20ca:	4299      	cmp	r1, r3
    20cc:	d002      	beq.n	20d4 <__sflush_r+0xbc>
    20ce:	1c28      	adds	r0, r5, #0
    20d0:	f7ff fe48 	bl	1d64 <_free_r>
    20d4:	2000      	movs	r0, #0
    20d6:	6360      	str	r0, [r4, #52]	; 0x34
    20d8:	e026      	b.n	2128 <__sflush_r+0x110>
    20da:	2240      	movs	r2, #64	; 0x40
    20dc:	4313      	orrs	r3, r2
    20de:	81a3      	strh	r3, [r4, #12]
    20e0:	e022      	b.n	2128 <__sflush_r+0x110>
    20e2:	690f      	ldr	r7, [r1, #16]
    20e4:	2f00      	cmp	r7, #0
    20e6:	d0be      	beq.n	2066 <__sflush_r+0x4e>
    20e8:	680b      	ldr	r3, [r1, #0]
    20ea:	600f      	str	r7, [r1, #0]
    20ec:	1bdb      	subs	r3, r3, r7
    20ee:	9301      	str	r3, [sp, #4]
    20f0:	2300      	movs	r3, #0
    20f2:	0792      	lsls	r2, r2, #30
    20f4:	d100      	bne.n	20f8 <__sflush_r+0xe0>
    20f6:	694b      	ldr	r3, [r1, #20]
    20f8:	60a3      	str	r3, [r4, #8]
    20fa:	9b01      	ldr	r3, [sp, #4]
    20fc:	2b00      	cmp	r3, #0
    20fe:	ddb2      	ble.n	2066 <__sflush_r+0x4e>
    2100:	1c28      	adds	r0, r5, #0
    2102:	6a21      	ldr	r1, [r4, #32]
    2104:	1c3a      	adds	r2, r7, #0
    2106:	9b01      	ldr	r3, [sp, #4]
    2108:	6aa6      	ldr	r6, [r4, #40]	; 0x28
    210a:	47b0      	blx	r6
    210c:	2800      	cmp	r0, #0
    210e:	dc06      	bgt.n	211e <__sflush_r+0x106>
    2110:	2240      	movs	r2, #64	; 0x40
    2112:	2001      	movs	r0, #1
    2114:	89a3      	ldrh	r3, [r4, #12]
    2116:	4240      	negs	r0, r0
    2118:	4313      	orrs	r3, r2
    211a:	81a3      	strh	r3, [r4, #12]
    211c:	e004      	b.n	2128 <__sflush_r+0x110>
    211e:	9b01      	ldr	r3, [sp, #4]
    2120:	183f      	adds	r7, r7, r0
    2122:	1a1b      	subs	r3, r3, r0
    2124:	9301      	str	r3, [sp, #4]
    2126:	e7e8      	b.n	20fa <__sflush_r+0xe2>
    2128:	bdfe      	pop	{r1, r2, r3, r4, r5, r6, r7, pc}
	...

0000212c <_fflush_r>:
    212c:	b538      	push	{r3, r4, r5, lr}
    212e:	690b      	ldr	r3, [r1, #16]
    2130:	1c05      	adds	r5, r0, #0
    2132:	1c0c      	adds	r4, r1, #0
    2134:	2b00      	cmp	r3, #0
    2136:	d101      	bne.n	213c <_fflush_r+0x10>
    2138:	2000      	movs	r0, #0
    213a:	e01c      	b.n	2176 <_fflush_r+0x4a>
    213c:	2800      	cmp	r0, #0
    213e:	d004      	beq.n	214a <_fflush_r+0x1e>
    2140:	6983      	ldr	r3, [r0, #24]
    2142:	2b00      	cmp	r3, #0
    2144:	d101      	bne.n	214a <_fflush_r+0x1e>
    2146:	f000 f85f 	bl	2208 <__sinit>
    214a:	4b0b      	ldr	r3, [pc, #44]	; (2178 <_fflush_r+0x4c>)
    214c:	429c      	cmp	r4, r3
    214e:	d101      	bne.n	2154 <_fflush_r+0x28>
    2150:	686c      	ldr	r4, [r5, #4]
    2152:	e008      	b.n	2166 <_fflush_r+0x3a>
    2154:	4b09      	ldr	r3, [pc, #36]	; (217c <_fflush_r+0x50>)
    2156:	429c      	cmp	r4, r3
    2158:	d101      	bne.n	215e <_fflush_r+0x32>
    215a:	68ac      	ldr	r4, [r5, #8]
    215c:	e003      	b.n	2166 <_fflush_r+0x3a>
    215e:	4b08      	ldr	r3, [pc, #32]	; (2180 <_fflush_r+0x54>)
    2160:	429c      	cmp	r4, r3
    2162:	d100      	bne.n	2166 <_fflush_r+0x3a>
    2164:	68ec      	ldr	r4, [r5, #12]
    2166:	220c      	movs	r2, #12
    2168:	5ea3      	ldrsh	r3, [r4, r2]
    216a:	2b00      	cmp	r3, #0
    216c:	d0e4      	beq.n	2138 <_fflush_r+0xc>
    216e:	1c28      	adds	r0, r5, #0
    2170:	1c21      	adds	r1, r4, #0
    2172:	f7ff ff51 	bl	2018 <__sflush_r>
    2176:	bd38      	pop	{r3, r4, r5, pc}
    2178:	00002e5c 	.word	0x00002e5c
    217c:	00002e7c 	.word	0x00002e7c
    2180:	00002e9c 	.word	0x00002e9c

00002184 <_cleanup_r>:
    2184:	b508      	push	{r3, lr}
    2186:	4902      	ldr	r1, [pc, #8]	; (2190 <_cleanup_r+0xc>)
    2188:	f000 f8ae 	bl	22e8 <_fwalk_reent>
    218c:	bd08      	pop	{r3, pc}
    218e:	46c0      	nop			; (mov r8, r8)
    2190:	0000212d 	.word	0x0000212d

00002194 <std.isra.0>:
    2194:	2300      	movs	r3, #0
    2196:	b510      	push	{r4, lr}
    2198:	1c04      	adds	r4, r0, #0
    219a:	6003      	str	r3, [r0, #0]
    219c:	6043      	str	r3, [r0, #4]
    219e:	6083      	str	r3, [r0, #8]
    21a0:	8181      	strh	r1, [r0, #12]
    21a2:	6643      	str	r3, [r0, #100]	; 0x64
    21a4:	81c2      	strh	r2, [r0, #14]
    21a6:	6103      	str	r3, [r0, #16]
    21a8:	6143      	str	r3, [r0, #20]
    21aa:	6183      	str	r3, [r0, #24]
    21ac:	1c19      	adds	r1, r3, #0
    21ae:	2208      	movs	r2, #8
    21b0:	305c      	adds	r0, #92	; 0x5c
    21b2:	f7ff fdce 	bl	1d52 <memset>
    21b6:	4b05      	ldr	r3, [pc, #20]	; (21cc <std.isra.0+0x38>)
    21b8:	6224      	str	r4, [r4, #32]
    21ba:	6263      	str	r3, [r4, #36]	; 0x24
    21bc:	4b04      	ldr	r3, [pc, #16]	; (21d0 <std.isra.0+0x3c>)
    21be:	62a3      	str	r3, [r4, #40]	; 0x28
    21c0:	4b04      	ldr	r3, [pc, #16]	; (21d4 <std.isra.0+0x40>)
    21c2:	62e3      	str	r3, [r4, #44]	; 0x2c
    21c4:	4b04      	ldr	r3, [pc, #16]	; (21d8 <std.isra.0+0x44>)
    21c6:	6323      	str	r3, [r4, #48]	; 0x30
    21c8:	bd10      	pop	{r4, pc}
    21ca:	46c0      	nop			; (mov r8, r8)
    21cc:	000028a5 	.word	0x000028a5
    21d0:	000028cd 	.word	0x000028cd
    21d4:	00002905 	.word	0x00002905
    21d8:	00002931 	.word	0x00002931

000021dc <__sfmoreglue>:
    21dc:	b570      	push	{r4, r5, r6, lr}
    21de:	2568      	movs	r5, #104	; 0x68
    21e0:	1e4b      	subs	r3, r1, #1
    21e2:	435d      	muls	r5, r3
    21e4:	1c0e      	adds	r6, r1, #0
    21e6:	1c29      	adds	r1, r5, #0
    21e8:	3174      	adds	r1, #116	; 0x74
    21ea:	f7ff fe01 	bl	1df0 <_malloc_r>
    21ee:	1e04      	subs	r4, r0, #0
    21f0:	d008      	beq.n	2204 <__sfmoreglue+0x28>
    21f2:	2100      	movs	r1, #0
    21f4:	1c2a      	adds	r2, r5, #0
    21f6:	6001      	str	r1, [r0, #0]
    21f8:	6046      	str	r6, [r0, #4]
    21fa:	300c      	adds	r0, #12
    21fc:	60a0      	str	r0, [r4, #8]
    21fe:	3268      	adds	r2, #104	; 0x68
    2200:	f7ff fda7 	bl	1d52 <memset>
    2204:	1c20      	adds	r0, r4, #0
    2206:	bd70      	pop	{r4, r5, r6, pc}

00002208 <__sinit>:
    2208:	6983      	ldr	r3, [r0, #24]
    220a:	b513      	push	{r0, r1, r4, lr}
    220c:	2b00      	cmp	r3, #0
    220e:	d128      	bne.n	2262 <__sinit+0x5a>
    2210:	6483      	str	r3, [r0, #72]	; 0x48
    2212:	64c3      	str	r3, [r0, #76]	; 0x4c
    2214:	6503      	str	r3, [r0, #80]	; 0x50
    2216:	4b13      	ldr	r3, [pc, #76]	; (2264 <__sinit+0x5c>)
    2218:	4a13      	ldr	r2, [pc, #76]	; (2268 <__sinit+0x60>)
    221a:	681b      	ldr	r3, [r3, #0]
    221c:	6282      	str	r2, [r0, #40]	; 0x28
    221e:	9301      	str	r3, [sp, #4]
    2220:	4298      	cmp	r0, r3
    2222:	d101      	bne.n	2228 <__sinit+0x20>
    2224:	2301      	movs	r3, #1
    2226:	6183      	str	r3, [r0, #24]
    2228:	1c04      	adds	r4, r0, #0
    222a:	f000 f81f 	bl	226c <__sfp>
    222e:	6060      	str	r0, [r4, #4]
    2230:	1c20      	adds	r0, r4, #0
    2232:	f000 f81b 	bl	226c <__sfp>
    2236:	60a0      	str	r0, [r4, #8]
    2238:	1c20      	adds	r0, r4, #0
    223a:	f000 f817 	bl	226c <__sfp>
    223e:	2104      	movs	r1, #4
    2240:	60e0      	str	r0, [r4, #12]
    2242:	2200      	movs	r2, #0
    2244:	6860      	ldr	r0, [r4, #4]
    2246:	f7ff ffa5 	bl	2194 <std.isra.0>
    224a:	68a0      	ldr	r0, [r4, #8]
    224c:	2109      	movs	r1, #9
    224e:	2201      	movs	r2, #1
    2250:	f7ff ffa0 	bl	2194 <std.isra.0>
    2254:	68e0      	ldr	r0, [r4, #12]
    2256:	2112      	movs	r1, #18
    2258:	2202      	movs	r2, #2
    225a:	f7ff ff9b 	bl	2194 <std.isra.0>
    225e:	2301      	movs	r3, #1
    2260:	61a3      	str	r3, [r4, #24]
    2262:	bd13      	pop	{r0, r1, r4, pc}
    2264:	00002e58 	.word	0x00002e58
    2268:	00002185 	.word	0x00002185

0000226c <__sfp>:
    226c:	b5f8      	push	{r3, r4, r5, r6, r7, lr}
    226e:	4b1d      	ldr	r3, [pc, #116]	; (22e4 <__sfp+0x78>)
    2270:	1c06      	adds	r6, r0, #0
    2272:	681d      	ldr	r5, [r3, #0]
    2274:	69ab      	ldr	r3, [r5, #24]
    2276:	2b00      	cmp	r3, #0
    2278:	d102      	bne.n	2280 <__sfp+0x14>
    227a:	1c28      	adds	r0, r5, #0
    227c:	f7ff ffc4 	bl	2208 <__sinit>
    2280:	3548      	adds	r5, #72	; 0x48
    2282:	68ac      	ldr	r4, [r5, #8]
    2284:	686b      	ldr	r3, [r5, #4]
    2286:	3b01      	subs	r3, #1
    2288:	d405      	bmi.n	2296 <__sfp+0x2a>
    228a:	220c      	movs	r2, #12
    228c:	5ea7      	ldrsh	r7, [r4, r2]
    228e:	2f00      	cmp	r7, #0
    2290:	d010      	beq.n	22b4 <__sfp+0x48>
    2292:	3468      	adds	r4, #104	; 0x68
    2294:	e7f7      	b.n	2286 <__sfp+0x1a>
    2296:	682b      	ldr	r3, [r5, #0]
    2298:	2b00      	cmp	r3, #0
    229a:	d106      	bne.n	22aa <__sfp+0x3e>
    229c:	1c30      	adds	r0, r6, #0
    229e:	2104      	movs	r1, #4
    22a0:	f7ff ff9c 	bl	21dc <__sfmoreglue>
    22a4:	6028      	str	r0, [r5, #0]
    22a6:	2800      	cmp	r0, #0
    22a8:	d001      	beq.n	22ae <__sfp+0x42>
    22aa:	682d      	ldr	r5, [r5, #0]
    22ac:	e7e9      	b.n	2282 <__sfp+0x16>
    22ae:	230c      	movs	r3, #12
    22b0:	6033      	str	r3, [r6, #0]
    22b2:	e016      	b.n	22e2 <__sfp+0x76>
    22b4:	2301      	movs	r3, #1
    22b6:	1c20      	adds	r0, r4, #0
    22b8:	425b      	negs	r3, r3
    22ba:	81e3      	strh	r3, [r4, #14]
    22bc:	3302      	adds	r3, #2
    22be:	81a3      	strh	r3, [r4, #12]
    22c0:	6667      	str	r7, [r4, #100]	; 0x64
    22c2:	6027      	str	r7, [r4, #0]
    22c4:	60a7      	str	r7, [r4, #8]
    22c6:	6067      	str	r7, [r4, #4]
    22c8:	6127      	str	r7, [r4, #16]
    22ca:	6167      	str	r7, [r4, #20]
    22cc:	61a7      	str	r7, [r4, #24]
    22ce:	305c      	adds	r0, #92	; 0x5c
    22d0:	1c39      	adds	r1, r7, #0
    22d2:	2208      	movs	r2, #8
    22d4:	f7ff fd3d 	bl	1d52 <memset>
    22d8:	1c20      	adds	r0, r4, #0
    22da:	6367      	str	r7, [r4, #52]	; 0x34
    22dc:	63a7      	str	r7, [r4, #56]	; 0x38
    22de:	64a7      	str	r7, [r4, #72]	; 0x48
    22e0:	64e7      	str	r7, [r4, #76]	; 0x4c
    22e2:	bdf8      	pop	{r3, r4, r5, r6, r7, pc}
    22e4:	00002e58 	.word	0x00002e58

000022e8 <_fwalk_reent>:
    22e8:	b5f7      	push	{r0, r1, r2, r4, r5, r6, r7, lr}
    22ea:	1c04      	adds	r4, r0, #0
    22ec:	1c07      	adds	r7, r0, #0
    22ee:	2600      	movs	r6, #0
    22f0:	9101      	str	r1, [sp, #4]
    22f2:	3448      	adds	r4, #72	; 0x48
    22f4:	2c00      	cmp	r4, #0
    22f6:	d016      	beq.n	2326 <_fwalk_reent+0x3e>
    22f8:	6863      	ldr	r3, [r4, #4]
    22fa:	68a5      	ldr	r5, [r4, #8]
    22fc:	9300      	str	r3, [sp, #0]
    22fe:	9b00      	ldr	r3, [sp, #0]
    2300:	3b01      	subs	r3, #1
    2302:	9300      	str	r3, [sp, #0]
    2304:	d40d      	bmi.n	2322 <_fwalk_reent+0x3a>
    2306:	89ab      	ldrh	r3, [r5, #12]
    2308:	2b01      	cmp	r3, #1
    230a:	d908      	bls.n	231e <_fwalk_reent+0x36>
    230c:	220e      	movs	r2, #14
    230e:	5eab      	ldrsh	r3, [r5, r2]
    2310:	3301      	adds	r3, #1
    2312:	d004      	beq.n	231e <_fwalk_reent+0x36>
    2314:	1c38      	adds	r0, r7, #0
    2316:	1c29      	adds	r1, r5, #0
    2318:	9b01      	ldr	r3, [sp, #4]
    231a:	4798      	blx	r3
    231c:	4306      	orrs	r6, r0
    231e:	3568      	adds	r5, #104	; 0x68
    2320:	e7ed      	b.n	22fe <_fwalk_reent+0x16>
    2322:	6824      	ldr	r4, [r4, #0]
    2324:	e7e6      	b.n	22f4 <_fwalk_reent+0xc>
    2326:	1c30      	adds	r0, r6, #0
    2328:	bdfe      	pop	{r1, r2, r3, r4, r5, r6, r7, pc}

0000232a <__sfputc_r>:
    232a:	6893      	ldr	r3, [r2, #8]
    232c:	b510      	push	{r4, lr}
    232e:	3b01      	subs	r3, #1
    2330:	6093      	str	r3, [r2, #8]
    2332:	2b00      	cmp	r3, #0
    2334:	da05      	bge.n	2342 <__sfputc_r+0x18>
    2336:	6994      	ldr	r4, [r2, #24]
    2338:	42a3      	cmp	r3, r4
    233a:	db08      	blt.n	234e <__sfputc_r+0x24>
    233c:	b2cb      	uxtb	r3, r1
    233e:	2b0a      	cmp	r3, #10
    2340:	d005      	beq.n	234e <__sfputc_r+0x24>
    2342:	6813      	ldr	r3, [r2, #0]
    2344:	1c58      	adds	r0, r3, #1
    2346:	6010      	str	r0, [r2, #0]
    2348:	7019      	strb	r1, [r3, #0]
    234a:	b2c8      	uxtb	r0, r1
    234c:	e001      	b.n	2352 <__sfputc_r+0x28>
    234e:	f000 faf5 	bl	293c <__swbuf_r>
    2352:	bd10      	pop	{r4, pc}

00002354 <__sfputs_r>:
    2354:	b5f8      	push	{r3, r4, r5, r6, r7, lr}
    2356:	1c06      	adds	r6, r0, #0
    2358:	1c0f      	adds	r7, r1, #0
    235a:	1c14      	adds	r4, r2, #0
    235c:	18d5      	adds	r5, r2, r3
    235e:	42ac      	cmp	r4, r5
    2360:	d008      	beq.n	2374 <__sfputs_r+0x20>
    2362:	7821      	ldrb	r1, [r4, #0]
    2364:	1c30      	adds	r0, r6, #0
    2366:	1c3a      	adds	r2, r7, #0
    2368:	f7ff ffdf 	bl	232a <__sfputc_r>
    236c:	3401      	adds	r4, #1
    236e:	1c43      	adds	r3, r0, #1
    2370:	d1f5      	bne.n	235e <__sfputs_r+0xa>
    2372:	e000      	b.n	2376 <__sfputs_r+0x22>
    2374:	2000      	movs	r0, #0
    2376:	bdf8      	pop	{r3, r4, r5, r6, r7, pc}

00002378 <_vfiprintf_r>:
    2378:	b5f0      	push	{r4, r5, r6, r7, lr}
    237a:	b09f      	sub	sp, #124	; 0x7c
    237c:	1c06      	adds	r6, r0, #0
    237e:	1c0f      	adds	r7, r1, #0
    2380:	9202      	str	r2, [sp, #8]
    2382:	9305      	str	r3, [sp, #20]
    2384:	2800      	cmp	r0, #0
    2386:	d004      	beq.n	2392 <_vfiprintf_r+0x1a>
    2388:	6983      	ldr	r3, [r0, #24]
    238a:	2b00      	cmp	r3, #0
    238c:	d101      	bne.n	2392 <_vfiprintf_r+0x1a>
    238e:	f7ff ff3b 	bl	2208 <__sinit>
    2392:	4b79      	ldr	r3, [pc, #484]	; (2578 <_vfiprintf_r+0x200>)
    2394:	429f      	cmp	r7, r3
    2396:	d101      	bne.n	239c <_vfiprintf_r+0x24>
    2398:	6877      	ldr	r7, [r6, #4]
    239a:	e008      	b.n	23ae <_vfiprintf_r+0x36>
    239c:	4b77      	ldr	r3, [pc, #476]	; (257c <_vfiprintf_r+0x204>)
    239e:	429f      	cmp	r7, r3
    23a0:	d101      	bne.n	23a6 <_vfiprintf_r+0x2e>
    23a2:	68b7      	ldr	r7, [r6, #8]
    23a4:	e003      	b.n	23ae <_vfiprintf_r+0x36>
    23a6:	4b76      	ldr	r3, [pc, #472]	; (2580 <_vfiprintf_r+0x208>)
    23a8:	429f      	cmp	r7, r3
    23aa:	d100      	bne.n	23ae <_vfiprintf_r+0x36>
    23ac:	68f7      	ldr	r7, [r6, #12]
    23ae:	89bb      	ldrh	r3, [r7, #12]
    23b0:	071b      	lsls	r3, r3, #28
    23b2:	d50a      	bpl.n	23ca <_vfiprintf_r+0x52>
    23b4:	693b      	ldr	r3, [r7, #16]
    23b6:	2b00      	cmp	r3, #0
    23b8:	d007      	beq.n	23ca <_vfiprintf_r+0x52>
    23ba:	2300      	movs	r3, #0
    23bc:	ad06      	add	r5, sp, #24
    23be:	616b      	str	r3, [r5, #20]
    23c0:	3320      	adds	r3, #32
    23c2:	766b      	strb	r3, [r5, #25]
    23c4:	3310      	adds	r3, #16
    23c6:	76ab      	strb	r3, [r5, #26]
    23c8:	e03d      	b.n	2446 <_vfiprintf_r+0xce>
    23ca:	1c30      	adds	r0, r6, #0
    23cc:	1c39      	adds	r1, r7, #0
    23ce:	f000 fb21 	bl	2a14 <__swsetup_r>
    23d2:	2800      	cmp	r0, #0
    23d4:	d0f1      	beq.n	23ba <_vfiprintf_r+0x42>
    23d6:	2001      	movs	r0, #1
    23d8:	4240      	negs	r0, r0
    23da:	e0ca      	b.n	2572 <_vfiprintf_r+0x1fa>
    23dc:	9a05      	ldr	r2, [sp, #20]
    23de:	1d11      	adds	r1, r2, #4
    23e0:	6812      	ldr	r2, [r2, #0]
    23e2:	9105      	str	r1, [sp, #20]
    23e4:	2a00      	cmp	r2, #0
    23e6:	db7e      	blt.n	24e6 <_vfiprintf_r+0x16e>
    23e8:	9209      	str	r2, [sp, #36]	; 0x24
    23ea:	3401      	adds	r4, #1
    23ec:	7823      	ldrb	r3, [r4, #0]
    23ee:	2b2e      	cmp	r3, #46	; 0x2e
    23f0:	d100      	bne.n	23f4 <_vfiprintf_r+0x7c>
    23f2:	e089      	b.n	2508 <_vfiprintf_r+0x190>
    23f4:	7821      	ldrb	r1, [r4, #0]
    23f6:	4863      	ldr	r0, [pc, #396]	; (2584 <_vfiprintf_r+0x20c>)
    23f8:	2203      	movs	r2, #3
    23fa:	f000 fbfd 	bl	2bf8 <memchr>
    23fe:	2800      	cmp	r0, #0
    2400:	d008      	beq.n	2414 <_vfiprintf_r+0x9c>
    2402:	4b60      	ldr	r3, [pc, #384]	; (2584 <_vfiprintf_r+0x20c>)
    2404:	3401      	adds	r4, #1
    2406:	1ac0      	subs	r0, r0, r3
    2408:	2340      	movs	r3, #64	; 0x40
    240a:	4083      	lsls	r3, r0
    240c:	1c18      	adds	r0, r3, #0
    240e:	682b      	ldr	r3, [r5, #0]
    2410:	4318      	orrs	r0, r3
    2412:	6028      	str	r0, [r5, #0]
    2414:	7821      	ldrb	r1, [r4, #0]
    2416:	1c63      	adds	r3, r4, #1
    2418:	485b      	ldr	r0, [pc, #364]	; (2588 <_vfiprintf_r+0x210>)
    241a:	2206      	movs	r2, #6
    241c:	9302      	str	r3, [sp, #8]
    241e:	7629      	strb	r1, [r5, #24]
    2420:	f000 fbea 	bl	2bf8 <memchr>
    2424:	2800      	cmp	r0, #0
    2426:	d100      	bne.n	242a <_vfiprintf_r+0xb2>
    2428:	e091      	b.n	254e <_vfiprintf_r+0x1d6>
    242a:	4b58      	ldr	r3, [pc, #352]	; (258c <_vfiprintf_r+0x214>)
    242c:	2b00      	cmp	r3, #0
    242e:	d000      	beq.n	2432 <_vfiprintf_r+0xba>
    2430:	e084      	b.n	253c <_vfiprintf_r+0x1c4>
    2432:	2207      	movs	r2, #7
    2434:	9b05      	ldr	r3, [sp, #20]
    2436:	3307      	adds	r3, #7
    2438:	4393      	bics	r3, r2
    243a:	3308      	adds	r3, #8
    243c:	9305      	str	r3, [sp, #20]
    243e:	696b      	ldr	r3, [r5, #20]
    2440:	9a03      	ldr	r2, [sp, #12]
    2442:	189b      	adds	r3, r3, r2
    2444:	616b      	str	r3, [r5, #20]
    2446:	9c02      	ldr	r4, [sp, #8]
    2448:	7823      	ldrb	r3, [r4, #0]
    244a:	2b00      	cmp	r3, #0
    244c:	d104      	bne.n	2458 <_vfiprintf_r+0xe0>
    244e:	9b02      	ldr	r3, [sp, #8]
    2450:	1ae3      	subs	r3, r4, r3
    2452:	9304      	str	r3, [sp, #16]
    2454:	d011      	beq.n	247a <_vfiprintf_r+0x102>
    2456:	e003      	b.n	2460 <_vfiprintf_r+0xe8>
    2458:	2b25      	cmp	r3, #37	; 0x25
    245a:	d0f8      	beq.n	244e <_vfiprintf_r+0xd6>
    245c:	3401      	adds	r4, #1
    245e:	e7f3      	b.n	2448 <_vfiprintf_r+0xd0>
    2460:	9b04      	ldr	r3, [sp, #16]
    2462:	1c30      	adds	r0, r6, #0
    2464:	1c39      	adds	r1, r7, #0
    2466:	9a02      	ldr	r2, [sp, #8]
    2468:	f7ff ff74 	bl	2354 <__sfputs_r>
    246c:	1c43      	adds	r3, r0, #1
    246e:	d07b      	beq.n	2568 <_vfiprintf_r+0x1f0>
    2470:	696a      	ldr	r2, [r5, #20]
    2472:	9b04      	ldr	r3, [sp, #16]
    2474:	4694      	mov	ip, r2
    2476:	4463      	add	r3, ip
    2478:	616b      	str	r3, [r5, #20]
    247a:	7823      	ldrb	r3, [r4, #0]
    247c:	2b00      	cmp	r3, #0
    247e:	d073      	beq.n	2568 <_vfiprintf_r+0x1f0>
    2480:	2201      	movs	r2, #1
    2482:	2300      	movs	r3, #0
    2484:	4252      	negs	r2, r2
    2486:	606a      	str	r2, [r5, #4]
    2488:	a902      	add	r1, sp, #8
    248a:	3254      	adds	r2, #84	; 0x54
    248c:	1852      	adds	r2, r2, r1
    248e:	3401      	adds	r4, #1
    2490:	602b      	str	r3, [r5, #0]
    2492:	60eb      	str	r3, [r5, #12]
    2494:	60ab      	str	r3, [r5, #8]
    2496:	7013      	strb	r3, [r2, #0]
    2498:	65ab      	str	r3, [r5, #88]	; 0x58
    249a:	7821      	ldrb	r1, [r4, #0]
    249c:	483c      	ldr	r0, [pc, #240]	; (2590 <_vfiprintf_r+0x218>)
    249e:	2205      	movs	r2, #5
    24a0:	f000 fbaa 	bl	2bf8 <memchr>
    24a4:	2800      	cmp	r0, #0
    24a6:	d009      	beq.n	24bc <_vfiprintf_r+0x144>
    24a8:	4b39      	ldr	r3, [pc, #228]	; (2590 <_vfiprintf_r+0x218>)
    24aa:	3401      	adds	r4, #1
    24ac:	1ac0      	subs	r0, r0, r3
    24ae:	2301      	movs	r3, #1
    24b0:	4083      	lsls	r3, r0
    24b2:	1c18      	adds	r0, r3, #0
    24b4:	682b      	ldr	r3, [r5, #0]
    24b6:	4318      	orrs	r0, r3
    24b8:	6028      	str	r0, [r5, #0]
    24ba:	e7ee      	b.n	249a <_vfiprintf_r+0x122>
    24bc:	682b      	ldr	r3, [r5, #0]
    24be:	06da      	lsls	r2, r3, #27
    24c0:	d504      	bpl.n	24cc <_vfiprintf_r+0x154>
    24c2:	2253      	movs	r2, #83	; 0x53
    24c4:	2120      	movs	r1, #32
    24c6:	a802      	add	r0, sp, #8
    24c8:	1812      	adds	r2, r2, r0
    24ca:	7011      	strb	r1, [r2, #0]
    24cc:	071a      	lsls	r2, r3, #28
    24ce:	d504      	bpl.n	24da <_vfiprintf_r+0x162>
    24d0:	2253      	movs	r2, #83	; 0x53
    24d2:	212b      	movs	r1, #43	; 0x2b
    24d4:	a802      	add	r0, sp, #8
    24d6:	1812      	adds	r2, r2, r0
    24d8:	7011      	strb	r1, [r2, #0]
    24da:	7822      	ldrb	r2, [r4, #0]
    24dc:	2a2a      	cmp	r2, #42	; 0x2a
    24de:	d100      	bne.n	24e2 <_vfiprintf_r+0x16a>
    24e0:	e77c      	b.n	23dc <_vfiprintf_r+0x64>
    24e2:	9b09      	ldr	r3, [sp, #36]	; 0x24
    24e4:	e005      	b.n	24f2 <_vfiprintf_r+0x17a>
    24e6:	4252      	negs	r2, r2
    24e8:	60ea      	str	r2, [r5, #12]
    24ea:	2202      	movs	r2, #2
    24ec:	4313      	orrs	r3, r2
    24ee:	602b      	str	r3, [r5, #0]
    24f0:	e77b      	b.n	23ea <_vfiprintf_r+0x72>
    24f2:	7822      	ldrb	r2, [r4, #0]
    24f4:	3a30      	subs	r2, #48	; 0x30
    24f6:	2a09      	cmp	r2, #9
    24f8:	d804      	bhi.n	2504 <_vfiprintf_r+0x18c>
    24fa:	210a      	movs	r1, #10
    24fc:	434b      	muls	r3, r1
    24fe:	3401      	adds	r4, #1
    2500:	189b      	adds	r3, r3, r2
    2502:	e7f6      	b.n	24f2 <_vfiprintf_r+0x17a>
    2504:	9309      	str	r3, [sp, #36]	; 0x24
    2506:	e771      	b.n	23ec <_vfiprintf_r+0x74>
    2508:	7863      	ldrb	r3, [r4, #1]
    250a:	2b2a      	cmp	r3, #42	; 0x2a
    250c:	d109      	bne.n	2522 <_vfiprintf_r+0x1aa>
    250e:	9b05      	ldr	r3, [sp, #20]
    2510:	3402      	adds	r4, #2
    2512:	1d1a      	adds	r2, r3, #4
    2514:	681b      	ldr	r3, [r3, #0]
    2516:	9205      	str	r2, [sp, #20]
    2518:	2b00      	cmp	r3, #0
    251a:	da0d      	bge.n	2538 <_vfiprintf_r+0x1c0>
    251c:	2301      	movs	r3, #1
    251e:	425b      	negs	r3, r3
    2520:	e00a      	b.n	2538 <_vfiprintf_r+0x1c0>
    2522:	2300      	movs	r3, #0
    2524:	3401      	adds	r4, #1
    2526:	7822      	ldrb	r2, [r4, #0]
    2528:	3a30      	subs	r2, #48	; 0x30
    252a:	2a09      	cmp	r2, #9
    252c:	d804      	bhi.n	2538 <_vfiprintf_r+0x1c0>
    252e:	210a      	movs	r1, #10
    2530:	434b      	muls	r3, r1
    2532:	3401      	adds	r4, #1
    2534:	189b      	adds	r3, r3, r2
    2536:	e7f6      	b.n	2526 <_vfiprintf_r+0x1ae>
    2538:	9307      	str	r3, [sp, #28]
    253a:	e75b      	b.n	23f4 <_vfiprintf_r+0x7c>
    253c:	ab05      	add	r3, sp, #20
    253e:	9300      	str	r3, [sp, #0]
    2540:	1c30      	adds	r0, r6, #0
    2542:	1c29      	adds	r1, r5, #0
    2544:	1c3a      	adds	r2, r7, #0
    2546:	4b13      	ldr	r3, [pc, #76]	; (2594 <_vfiprintf_r+0x21c>)
    2548:	e000      	b.n	254c <_vfiprintf_r+0x1d4>
    254a:	bf00      	nop
    254c:	e007      	b.n	255e <_vfiprintf_r+0x1e6>
    254e:	ab05      	add	r3, sp, #20
    2550:	9300      	str	r3, [sp, #0]
    2552:	1c30      	adds	r0, r6, #0
    2554:	1c29      	adds	r1, r5, #0
    2556:	1c3a      	adds	r2, r7, #0
    2558:	4b0e      	ldr	r3, [pc, #56]	; (2594 <_vfiprintf_r+0x21c>)
    255a:	f000 f88b 	bl	2674 <_printf_i>
    255e:	9003      	str	r0, [sp, #12]
    2560:	9b03      	ldr	r3, [sp, #12]
    2562:	3301      	adds	r3, #1
    2564:	d000      	beq.n	2568 <_vfiprintf_r+0x1f0>
    2566:	e76a      	b.n	243e <_vfiprintf_r+0xc6>
    2568:	89bb      	ldrh	r3, [r7, #12]
    256a:	065b      	lsls	r3, r3, #25
    256c:	d500      	bpl.n	2570 <_vfiprintf_r+0x1f8>
    256e:	e732      	b.n	23d6 <_vfiprintf_r+0x5e>
    2570:	980b      	ldr	r0, [sp, #44]	; 0x2c
    2572:	b01f      	add	sp, #124	; 0x7c
    2574:	bdf0      	pop	{r4, r5, r6, r7, pc}
    2576:	46c0      	nop			; (mov r8, r8)
    2578:	00002e5c 	.word	0x00002e5c
    257c:	00002e7c 	.word	0x00002e7c
    2580:	00002e9c 	.word	0x00002e9c
    2584:	00002ec2 	.word	0x00002ec2
    2588:	00002ec6 	.word	0x00002ec6
    258c:	00000000 	.word	0x00000000
    2590:	00002ebc 	.word	0x00002ebc
    2594:	00002355 	.word	0x00002355

00002598 <_printf_common>:
    2598:	b5f7      	push	{r0, r1, r2, r4, r5, r6, r7, lr}
    259a:	1c17      	adds	r7, r2, #0
    259c:	9301      	str	r3, [sp, #4]
    259e:	690a      	ldr	r2, [r1, #16]
    25a0:	688b      	ldr	r3, [r1, #8]
    25a2:	9000      	str	r0, [sp, #0]
    25a4:	1c0c      	adds	r4, r1, #0
    25a6:	4293      	cmp	r3, r2
    25a8:	da00      	bge.n	25ac <_printf_common+0x14>
    25aa:	1c13      	adds	r3, r2, #0
    25ac:	1c22      	adds	r2, r4, #0
    25ae:	603b      	str	r3, [r7, #0]
    25b0:	3243      	adds	r2, #67	; 0x43
    25b2:	7812      	ldrb	r2, [r2, #0]
    25b4:	2a00      	cmp	r2, #0
    25b6:	d001      	beq.n	25bc <_printf_common+0x24>
    25b8:	3301      	adds	r3, #1
    25ba:	603b      	str	r3, [r7, #0]
    25bc:	6823      	ldr	r3, [r4, #0]
    25be:	069b      	lsls	r3, r3, #26
    25c0:	d502      	bpl.n	25c8 <_printf_common+0x30>
    25c2:	683b      	ldr	r3, [r7, #0]
    25c4:	3302      	adds	r3, #2
    25c6:	603b      	str	r3, [r7, #0]
    25c8:	2506      	movs	r5, #6
    25ca:	6823      	ldr	r3, [r4, #0]
    25cc:	401d      	ands	r5, r3
    25ce:	d01e      	beq.n	260e <_printf_common+0x76>
    25d0:	1c23      	adds	r3, r4, #0
    25d2:	3343      	adds	r3, #67	; 0x43
    25d4:	781b      	ldrb	r3, [r3, #0]
    25d6:	1e5a      	subs	r2, r3, #1
    25d8:	4193      	sbcs	r3, r2
    25da:	6822      	ldr	r2, [r4, #0]
    25dc:	0692      	lsls	r2, r2, #26
    25de:	d51c      	bpl.n	261a <_printf_common+0x82>
    25e0:	2030      	movs	r0, #48	; 0x30
    25e2:	18e1      	adds	r1, r4, r3
    25e4:	3140      	adds	r1, #64	; 0x40
    25e6:	70c8      	strb	r0, [r1, #3]
    25e8:	1c21      	adds	r1, r4, #0
    25ea:	1c5a      	adds	r2, r3, #1
    25ec:	3145      	adds	r1, #69	; 0x45
    25ee:	7809      	ldrb	r1, [r1, #0]
    25f0:	18a2      	adds	r2, r4, r2
    25f2:	3240      	adds	r2, #64	; 0x40
    25f4:	3302      	adds	r3, #2
    25f6:	70d1      	strb	r1, [r2, #3]
    25f8:	e00f      	b.n	261a <_printf_common+0x82>
    25fa:	1c22      	adds	r2, r4, #0
    25fc:	2301      	movs	r3, #1
    25fe:	9800      	ldr	r0, [sp, #0]
    2600:	9901      	ldr	r1, [sp, #4]
    2602:	3219      	adds	r2, #25
    2604:	9e08      	ldr	r6, [sp, #32]
    2606:	47b0      	blx	r6
    2608:	1c43      	adds	r3, r0, #1
    260a:	d00e      	beq.n	262a <_printf_common+0x92>
    260c:	3501      	adds	r5, #1
    260e:	68e3      	ldr	r3, [r4, #12]
    2610:	683a      	ldr	r2, [r7, #0]
    2612:	1a9b      	subs	r3, r3, r2
    2614:	429d      	cmp	r5, r3
    2616:	dbf0      	blt.n	25fa <_printf_common+0x62>
    2618:	e7da      	b.n	25d0 <_printf_common+0x38>
    261a:	1c22      	adds	r2, r4, #0
    261c:	9800      	ldr	r0, [sp, #0]
    261e:	9901      	ldr	r1, [sp, #4]
    2620:	3243      	adds	r2, #67	; 0x43
    2622:	9d08      	ldr	r5, [sp, #32]
    2624:	47a8      	blx	r5
    2626:	1c43      	adds	r3, r0, #1
    2628:	d102      	bne.n	2630 <_printf_common+0x98>
    262a:	2001      	movs	r0, #1
    262c:	4240      	negs	r0, r0
    262e:	e020      	b.n	2672 <_printf_common+0xda>
    2630:	2306      	movs	r3, #6
    2632:	6820      	ldr	r0, [r4, #0]
    2634:	68e1      	ldr	r1, [r4, #12]
    2636:	683a      	ldr	r2, [r7, #0]
    2638:	4003      	ands	r3, r0
    263a:	2500      	movs	r5, #0
    263c:	2b04      	cmp	r3, #4
    263e:	d103      	bne.n	2648 <_printf_common+0xb0>
    2640:	1a8d      	subs	r5, r1, r2
    2642:	43eb      	mvns	r3, r5
    2644:	17db      	asrs	r3, r3, #31
    2646:	401d      	ands	r5, r3
    2648:	68a3      	ldr	r3, [r4, #8]
    264a:	6922      	ldr	r2, [r4, #16]
    264c:	4293      	cmp	r3, r2
    264e:	dd01      	ble.n	2654 <_printf_common+0xbc>
    2650:	1a9b      	subs	r3, r3, r2
    2652:	18ed      	adds	r5, r5, r3
    2654:	2700      	movs	r7, #0
    2656:	42af      	cmp	r7, r5
    2658:	da0a      	bge.n	2670 <_printf_common+0xd8>
    265a:	1c22      	adds	r2, r4, #0
    265c:	2301      	movs	r3, #1
    265e:	9800      	ldr	r0, [sp, #0]
    2660:	9901      	ldr	r1, [sp, #4]
    2662:	321a      	adds	r2, #26
    2664:	9e08      	ldr	r6, [sp, #32]
    2666:	47b0      	blx	r6
    2668:	1c43      	adds	r3, r0, #1
    266a:	d0de      	beq.n	262a <_printf_common+0x92>
    266c:	3701      	adds	r7, #1
    266e:	e7f2      	b.n	2656 <_printf_common+0xbe>
    2670:	2000      	movs	r0, #0
    2672:	bdfe      	pop	{r1, r2, r3, r4, r5, r6, r7, pc}

00002674 <_printf_i>:
    2674:	b5f0      	push	{r4, r5, r6, r7, lr}
    2676:	b08b      	sub	sp, #44	; 0x2c
    2678:	9206      	str	r2, [sp, #24]
    267a:	1c0a      	adds	r2, r1, #0
    267c:	3243      	adds	r2, #67	; 0x43
    267e:	9307      	str	r3, [sp, #28]
    2680:	9005      	str	r0, [sp, #20]
    2682:	9204      	str	r2, [sp, #16]
    2684:	7e0a      	ldrb	r2, [r1, #24]
    2686:	1c0c      	adds	r4, r1, #0
    2688:	9b10      	ldr	r3, [sp, #64]	; 0x40
    268a:	2a6e      	cmp	r2, #110	; 0x6e
    268c:	d100      	bne.n	2690 <_printf_i+0x1c>
    268e:	e0a8      	b.n	27e2 <_printf_i+0x16e>
    2690:	d811      	bhi.n	26b6 <_printf_i+0x42>
    2692:	2a63      	cmp	r2, #99	; 0x63
    2694:	d022      	beq.n	26dc <_printf_i+0x68>
    2696:	d809      	bhi.n	26ac <_printf_i+0x38>
    2698:	2a00      	cmp	r2, #0
    269a:	d100      	bne.n	269e <_printf_i+0x2a>
    269c:	e0b2      	b.n	2804 <_printf_i+0x190>
    269e:	2a58      	cmp	r2, #88	; 0x58
    26a0:	d000      	beq.n	26a4 <_printf_i+0x30>
    26a2:	e0c2      	b.n	282a <_printf_i+0x1b6>
    26a4:	3145      	adds	r1, #69	; 0x45
    26a6:	700a      	strb	r2, [r1, #0]
    26a8:	4a7c      	ldr	r2, [pc, #496]	; (289c <_printf_i+0x228>)
    26aa:	e04f      	b.n	274c <_printf_i+0xd8>
    26ac:	2a64      	cmp	r2, #100	; 0x64
    26ae:	d01d      	beq.n	26ec <_printf_i+0x78>
    26b0:	2a69      	cmp	r2, #105	; 0x69
    26b2:	d01b      	beq.n	26ec <_printf_i+0x78>
    26b4:	e0b9      	b.n	282a <_printf_i+0x1b6>
    26b6:	2a73      	cmp	r2, #115	; 0x73
    26b8:	d100      	bne.n	26bc <_printf_i+0x48>
    26ba:	e0a7      	b.n	280c <_printf_i+0x198>
    26bc:	d809      	bhi.n	26d2 <_printf_i+0x5e>
    26be:	2a6f      	cmp	r2, #111	; 0x6f
    26c0:	d029      	beq.n	2716 <_printf_i+0xa2>
    26c2:	2a70      	cmp	r2, #112	; 0x70
    26c4:	d000      	beq.n	26c8 <_printf_i+0x54>
    26c6:	e0b0      	b.n	282a <_printf_i+0x1b6>
    26c8:	2220      	movs	r2, #32
    26ca:	6809      	ldr	r1, [r1, #0]
    26cc:	430a      	orrs	r2, r1
    26ce:	6022      	str	r2, [r4, #0]
    26d0:	e037      	b.n	2742 <_printf_i+0xce>
    26d2:	2a75      	cmp	r2, #117	; 0x75
    26d4:	d01f      	beq.n	2716 <_printf_i+0xa2>
    26d6:	2a78      	cmp	r2, #120	; 0x78
    26d8:	d033      	beq.n	2742 <_printf_i+0xce>
    26da:	e0a6      	b.n	282a <_printf_i+0x1b6>
    26dc:	1c0e      	adds	r6, r1, #0
    26de:	681a      	ldr	r2, [r3, #0]
    26e0:	3642      	adds	r6, #66	; 0x42
    26e2:	1d11      	adds	r1, r2, #4
    26e4:	6019      	str	r1, [r3, #0]
    26e6:	6813      	ldr	r3, [r2, #0]
    26e8:	7033      	strb	r3, [r6, #0]
    26ea:	e0a1      	b.n	2830 <_printf_i+0x1bc>
    26ec:	6821      	ldr	r1, [r4, #0]
    26ee:	681a      	ldr	r2, [r3, #0]
    26f0:	0608      	lsls	r0, r1, #24
    26f2:	d406      	bmi.n	2702 <_printf_i+0x8e>
    26f4:	0649      	lsls	r1, r1, #25
    26f6:	d504      	bpl.n	2702 <_printf_i+0x8e>
    26f8:	1d11      	adds	r1, r2, #4
    26fa:	6019      	str	r1, [r3, #0]
    26fc:	2300      	movs	r3, #0
    26fe:	5ed5      	ldrsh	r5, [r2, r3]
    2700:	e002      	b.n	2708 <_printf_i+0x94>
    2702:	1d11      	adds	r1, r2, #4
    2704:	6019      	str	r1, [r3, #0]
    2706:	6815      	ldr	r5, [r2, #0]
    2708:	2d00      	cmp	r5, #0
    270a:	da3b      	bge.n	2784 <_printf_i+0x110>
    270c:	232d      	movs	r3, #45	; 0x2d
    270e:	9a04      	ldr	r2, [sp, #16]
    2710:	426d      	negs	r5, r5
    2712:	7013      	strb	r3, [r2, #0]
    2714:	e036      	b.n	2784 <_printf_i+0x110>
    2716:	6821      	ldr	r1, [r4, #0]
    2718:	681a      	ldr	r2, [r3, #0]
    271a:	0608      	lsls	r0, r1, #24
    271c:	d406      	bmi.n	272c <_printf_i+0xb8>
    271e:	0649      	lsls	r1, r1, #25
    2720:	d504      	bpl.n	272c <_printf_i+0xb8>
    2722:	6815      	ldr	r5, [r2, #0]
    2724:	1d11      	adds	r1, r2, #4
    2726:	6019      	str	r1, [r3, #0]
    2728:	b2ad      	uxth	r5, r5
    272a:	e002      	b.n	2732 <_printf_i+0xbe>
    272c:	1d11      	adds	r1, r2, #4
    272e:	6019      	str	r1, [r3, #0]
    2730:	6815      	ldr	r5, [r2, #0]
    2732:	4b5a      	ldr	r3, [pc, #360]	; (289c <_printf_i+0x228>)
    2734:	7e22      	ldrb	r2, [r4, #24]
    2736:	9303      	str	r3, [sp, #12]
    2738:	270a      	movs	r7, #10
    273a:	2a6f      	cmp	r2, #111	; 0x6f
    273c:	d11d      	bne.n	277a <_printf_i+0x106>
    273e:	2708      	movs	r7, #8
    2740:	e01b      	b.n	277a <_printf_i+0x106>
    2742:	1c22      	adds	r2, r4, #0
    2744:	2178      	movs	r1, #120	; 0x78
    2746:	3245      	adds	r2, #69	; 0x45
    2748:	7011      	strb	r1, [r2, #0]
    274a:	4a55      	ldr	r2, [pc, #340]	; (28a0 <_printf_i+0x22c>)
    274c:	6819      	ldr	r1, [r3, #0]
    274e:	9203      	str	r2, [sp, #12]
    2750:	1d08      	adds	r0, r1, #4
    2752:	6822      	ldr	r2, [r4, #0]
    2754:	6018      	str	r0, [r3, #0]
    2756:	680d      	ldr	r5, [r1, #0]
    2758:	0610      	lsls	r0, r2, #24
    275a:	d402      	bmi.n	2762 <_printf_i+0xee>
    275c:	0650      	lsls	r0, r2, #25
    275e:	d500      	bpl.n	2762 <_printf_i+0xee>
    2760:	b2ad      	uxth	r5, r5
    2762:	07d3      	lsls	r3, r2, #31
    2764:	d502      	bpl.n	276c <_printf_i+0xf8>
    2766:	2320      	movs	r3, #32
    2768:	431a      	orrs	r2, r3
    276a:	6022      	str	r2, [r4, #0]
    276c:	2710      	movs	r7, #16
    276e:	2d00      	cmp	r5, #0
    2770:	d103      	bne.n	277a <_printf_i+0x106>
    2772:	2320      	movs	r3, #32
    2774:	6822      	ldr	r2, [r4, #0]
    2776:	439a      	bics	r2, r3
    2778:	6022      	str	r2, [r4, #0]
    277a:	1c23      	adds	r3, r4, #0
    277c:	2200      	movs	r2, #0
    277e:	3343      	adds	r3, #67	; 0x43
    2780:	701a      	strb	r2, [r3, #0]
    2782:	e002      	b.n	278a <_printf_i+0x116>
    2784:	270a      	movs	r7, #10
    2786:	4b45      	ldr	r3, [pc, #276]	; (289c <_printf_i+0x228>)
    2788:	9303      	str	r3, [sp, #12]
    278a:	6863      	ldr	r3, [r4, #4]
    278c:	60a3      	str	r3, [r4, #8]
    278e:	2b00      	cmp	r3, #0
    2790:	db03      	blt.n	279a <_printf_i+0x126>
    2792:	2204      	movs	r2, #4
    2794:	6821      	ldr	r1, [r4, #0]
    2796:	4391      	bics	r1, r2
    2798:	6021      	str	r1, [r4, #0]
    279a:	2d00      	cmp	r5, #0
    279c:	d102      	bne.n	27a4 <_printf_i+0x130>
    279e:	9e04      	ldr	r6, [sp, #16]
    27a0:	2b00      	cmp	r3, #0
    27a2:	d00e      	beq.n	27c2 <_printf_i+0x14e>
    27a4:	9e04      	ldr	r6, [sp, #16]
    27a6:	1c28      	adds	r0, r5, #0
    27a8:	1c39      	adds	r1, r7, #0
    27aa:	f7ff fa63 	bl	1c74 <__aeabi_uidivmod>
    27ae:	9b03      	ldr	r3, [sp, #12]
    27b0:	3e01      	subs	r6, #1
    27b2:	5c5b      	ldrb	r3, [r3, r1]
    27b4:	1c28      	adds	r0, r5, #0
    27b6:	7033      	strb	r3, [r6, #0]
    27b8:	1c39      	adds	r1, r7, #0
    27ba:	f7ff f9d5 	bl	1b68 <__aeabi_uidiv>
    27be:	1e05      	subs	r5, r0, #0
    27c0:	d1f1      	bne.n	27a6 <_printf_i+0x132>
    27c2:	2f08      	cmp	r7, #8
    27c4:	d109      	bne.n	27da <_printf_i+0x166>
    27c6:	6823      	ldr	r3, [r4, #0]
    27c8:	07db      	lsls	r3, r3, #31
    27ca:	d506      	bpl.n	27da <_printf_i+0x166>
    27cc:	6863      	ldr	r3, [r4, #4]
    27ce:	6922      	ldr	r2, [r4, #16]
    27d0:	4293      	cmp	r3, r2
    27d2:	dc02      	bgt.n	27da <_printf_i+0x166>
    27d4:	2330      	movs	r3, #48	; 0x30
    27d6:	3e01      	subs	r6, #1
    27d8:	7033      	strb	r3, [r6, #0]
    27da:	9b04      	ldr	r3, [sp, #16]
    27dc:	1b9b      	subs	r3, r3, r6
    27de:	6123      	str	r3, [r4, #16]
    27e0:	e02b      	b.n	283a <_printf_i+0x1c6>
    27e2:	6809      	ldr	r1, [r1, #0]
    27e4:	681a      	ldr	r2, [r3, #0]
    27e6:	0608      	lsls	r0, r1, #24
    27e8:	d407      	bmi.n	27fa <_printf_i+0x186>
    27ea:	0649      	lsls	r1, r1, #25
    27ec:	d505      	bpl.n	27fa <_printf_i+0x186>
    27ee:	1d11      	adds	r1, r2, #4
    27f0:	6019      	str	r1, [r3, #0]
    27f2:	6813      	ldr	r3, [r2, #0]
    27f4:	8aa2      	ldrh	r2, [r4, #20]
    27f6:	801a      	strh	r2, [r3, #0]
    27f8:	e004      	b.n	2804 <_printf_i+0x190>
    27fa:	1d11      	adds	r1, r2, #4
    27fc:	6019      	str	r1, [r3, #0]
    27fe:	6813      	ldr	r3, [r2, #0]
    2800:	6962      	ldr	r2, [r4, #20]
    2802:	601a      	str	r2, [r3, #0]
    2804:	2300      	movs	r3, #0
    2806:	9e04      	ldr	r6, [sp, #16]
    2808:	6123      	str	r3, [r4, #16]
    280a:	e016      	b.n	283a <_printf_i+0x1c6>
    280c:	681a      	ldr	r2, [r3, #0]
    280e:	1d11      	adds	r1, r2, #4
    2810:	6019      	str	r1, [r3, #0]
    2812:	6816      	ldr	r6, [r2, #0]
    2814:	2100      	movs	r1, #0
    2816:	1c30      	adds	r0, r6, #0
    2818:	6862      	ldr	r2, [r4, #4]
    281a:	f000 f9ed 	bl	2bf8 <memchr>
    281e:	2800      	cmp	r0, #0
    2820:	d001      	beq.n	2826 <_printf_i+0x1b2>
    2822:	1b80      	subs	r0, r0, r6
    2824:	6060      	str	r0, [r4, #4]
    2826:	6863      	ldr	r3, [r4, #4]
    2828:	e003      	b.n	2832 <_printf_i+0x1be>
    282a:	1c26      	adds	r6, r4, #0
    282c:	3642      	adds	r6, #66	; 0x42
    282e:	7032      	strb	r2, [r6, #0]
    2830:	2301      	movs	r3, #1
    2832:	6123      	str	r3, [r4, #16]
    2834:	2300      	movs	r3, #0
    2836:	9a04      	ldr	r2, [sp, #16]
    2838:	7013      	strb	r3, [r2, #0]
    283a:	9b07      	ldr	r3, [sp, #28]
    283c:	9805      	ldr	r0, [sp, #20]
    283e:	9300      	str	r3, [sp, #0]
    2840:	1c21      	adds	r1, r4, #0
    2842:	9b06      	ldr	r3, [sp, #24]
    2844:	aa09      	add	r2, sp, #36	; 0x24
    2846:	f7ff fea7 	bl	2598 <_printf_common>
    284a:	1c43      	adds	r3, r0, #1
    284c:	d102      	bne.n	2854 <_printf_i+0x1e0>
    284e:	2001      	movs	r0, #1
    2850:	4240      	negs	r0, r0
    2852:	e021      	b.n	2898 <_printf_i+0x224>
    2854:	6923      	ldr	r3, [r4, #16]
    2856:	9805      	ldr	r0, [sp, #20]
    2858:	9906      	ldr	r1, [sp, #24]
    285a:	1c32      	adds	r2, r6, #0
    285c:	9d07      	ldr	r5, [sp, #28]
    285e:	47a8      	blx	r5
    2860:	1c43      	adds	r3, r0, #1
    2862:	d0f4      	beq.n	284e <_printf_i+0x1da>
    2864:	6823      	ldr	r3, [r4, #0]
    2866:	079b      	lsls	r3, r3, #30
    2868:	d405      	bmi.n	2876 <_printf_i+0x202>
    286a:	9b09      	ldr	r3, [sp, #36]	; 0x24
    286c:	68e0      	ldr	r0, [r4, #12]
    286e:	4298      	cmp	r0, r3
    2870:	da12      	bge.n	2898 <_printf_i+0x224>
    2872:	1c18      	adds	r0, r3, #0
    2874:	e010      	b.n	2898 <_printf_i+0x224>
    2876:	2500      	movs	r5, #0
    2878:	68e3      	ldr	r3, [r4, #12]
    287a:	9a09      	ldr	r2, [sp, #36]	; 0x24
    287c:	1a9b      	subs	r3, r3, r2
    287e:	429d      	cmp	r5, r3
    2880:	daf3      	bge.n	286a <_printf_i+0x1f6>
    2882:	1c22      	adds	r2, r4, #0
    2884:	2301      	movs	r3, #1
    2886:	9805      	ldr	r0, [sp, #20]
    2888:	9906      	ldr	r1, [sp, #24]
    288a:	3219      	adds	r2, #25
    288c:	9e07      	ldr	r6, [sp, #28]
    288e:	47b0      	blx	r6
    2890:	1c43      	adds	r3, r0, #1
    2892:	d0dc      	beq.n	284e <_printf_i+0x1da>
    2894:	3501      	adds	r5, #1
    2896:	e7ef      	b.n	2878 <_printf_i+0x204>
    2898:	b00b      	add	sp, #44	; 0x2c
    289a:	bdf0      	pop	{r4, r5, r6, r7, pc}
    289c:	00002ecd 	.word	0x00002ecd
    28a0:	00002ede 	.word	0x00002ede

000028a4 <__sread>:
    28a4:	b538      	push	{r3, r4, r5, lr}
    28a6:	1c0c      	adds	r4, r1, #0
    28a8:	250e      	movs	r5, #14
    28aa:	5f49      	ldrsh	r1, [r1, r5]
    28ac:	f000 f9b0 	bl	2c10 <_read_r>
    28b0:	2800      	cmp	r0, #0
    28b2:	db03      	blt.n	28bc <__sread+0x18>
    28b4:	6d63      	ldr	r3, [r4, #84]	; 0x54
    28b6:	181b      	adds	r3, r3, r0
    28b8:	6563      	str	r3, [r4, #84]	; 0x54
    28ba:	e003      	b.n	28c4 <__sread+0x20>
    28bc:	89a2      	ldrh	r2, [r4, #12]
    28be:	4b02      	ldr	r3, [pc, #8]	; (28c8 <__sread+0x24>)
    28c0:	4013      	ands	r3, r2
    28c2:	81a3      	strh	r3, [r4, #12]
    28c4:	bd38      	pop	{r3, r4, r5, pc}
    28c6:	46c0      	nop			; (mov r8, r8)
    28c8:	ffffefff 	.word	0xffffefff

000028cc <__swrite>:
    28cc:	b5f8      	push	{r3, r4, r5, r6, r7, lr}
    28ce:	1c1e      	adds	r6, r3, #0
    28d0:	898b      	ldrh	r3, [r1, #12]
    28d2:	1c05      	adds	r5, r0, #0
    28d4:	1c0c      	adds	r4, r1, #0
    28d6:	1c17      	adds	r7, r2, #0
    28d8:	05db      	lsls	r3, r3, #23
    28da:	d505      	bpl.n	28e8 <__swrite+0x1c>
    28dc:	230e      	movs	r3, #14
    28de:	5ec9      	ldrsh	r1, [r1, r3]
    28e0:	2200      	movs	r2, #0
    28e2:	2302      	movs	r3, #2
    28e4:	f000 f91c 	bl	2b20 <_lseek_r>
    28e8:	89a2      	ldrh	r2, [r4, #12]
    28ea:	4b05      	ldr	r3, [pc, #20]	; (2900 <__swrite+0x34>)
    28ec:	1c28      	adds	r0, r5, #0
    28ee:	4013      	ands	r3, r2
    28f0:	81a3      	strh	r3, [r4, #12]
    28f2:	1c3a      	adds	r2, r7, #0
    28f4:	230e      	movs	r3, #14
    28f6:	5ee1      	ldrsh	r1, [r4, r3]
    28f8:	1c33      	adds	r3, r6, #0
    28fa:	f000 f877 	bl	29ec <_write_r>
    28fe:	bdf8      	pop	{r3, r4, r5, r6, r7, pc}
    2900:	ffffefff 	.word	0xffffefff

00002904 <__sseek>:
    2904:	b538      	push	{r3, r4, r5, lr}
    2906:	1c0c      	adds	r4, r1, #0
    2908:	250e      	movs	r5, #14
    290a:	5f49      	ldrsh	r1, [r1, r5]
    290c:	f000 f908 	bl	2b20 <_lseek_r>
    2910:	89a3      	ldrh	r3, [r4, #12]
    2912:	1c42      	adds	r2, r0, #1
    2914:	d103      	bne.n	291e <__sseek+0x1a>
    2916:	4a05      	ldr	r2, [pc, #20]	; (292c <__sseek+0x28>)
    2918:	4013      	ands	r3, r2
    291a:	81a3      	strh	r3, [r4, #12]
    291c:	e004      	b.n	2928 <__sseek+0x24>
    291e:	2280      	movs	r2, #128	; 0x80
    2920:	0152      	lsls	r2, r2, #5
    2922:	4313      	orrs	r3, r2
    2924:	81a3      	strh	r3, [r4, #12]
    2926:	6560      	str	r0, [r4, #84]	; 0x54
    2928:	bd38      	pop	{r3, r4, r5, pc}
    292a:	46c0      	nop			; (mov r8, r8)
    292c:	ffffefff 	.word	0xffffefff

00002930 <__sclose>:
    2930:	b508      	push	{r3, lr}
    2932:	230e      	movs	r3, #14
    2934:	5ec9      	ldrsh	r1, [r1, r3]
    2936:	f000 f8e1 	bl	2afc <_close_r>
    293a:	bd08      	pop	{r3, pc}

0000293c <__swbuf_r>:
    293c:	b570      	push	{r4, r5, r6, lr}
    293e:	1c05      	adds	r5, r0, #0
    2940:	1c0e      	adds	r6, r1, #0
    2942:	1c14      	adds	r4, r2, #0
    2944:	2800      	cmp	r0, #0
    2946:	d004      	beq.n	2952 <__swbuf_r+0x16>
    2948:	6983      	ldr	r3, [r0, #24]
    294a:	2b00      	cmp	r3, #0
    294c:	d101      	bne.n	2952 <__swbuf_r+0x16>
    294e:	f7ff fc5b 	bl	2208 <__sinit>
    2952:	4b23      	ldr	r3, [pc, #140]	; (29e0 <__swbuf_r+0xa4>)
    2954:	429c      	cmp	r4, r3
    2956:	d101      	bne.n	295c <__swbuf_r+0x20>
    2958:	686c      	ldr	r4, [r5, #4]
    295a:	e008      	b.n	296e <__swbuf_r+0x32>
    295c:	4b21      	ldr	r3, [pc, #132]	; (29e4 <__swbuf_r+0xa8>)
    295e:	429c      	cmp	r4, r3
    2960:	d101      	bne.n	2966 <__swbuf_r+0x2a>
    2962:	68ac      	ldr	r4, [r5, #8]
    2964:	e003      	b.n	296e <__swbuf_r+0x32>
    2966:	4b20      	ldr	r3, [pc, #128]	; (29e8 <__swbuf_r+0xac>)
    2968:	429c      	cmp	r4, r3
    296a:	d100      	bne.n	296e <__swbuf_r+0x32>
    296c:	68ec      	ldr	r4, [r5, #12]
    296e:	69a3      	ldr	r3, [r4, #24]
    2970:	60a3      	str	r3, [r4, #8]
    2972:	89a3      	ldrh	r3, [r4, #12]
    2974:	071b      	lsls	r3, r3, #28
    2976:	d50a      	bpl.n	298e <__swbuf_r+0x52>
    2978:	6923      	ldr	r3, [r4, #16]
    297a:	2b00      	cmp	r3, #0
    297c:	d007      	beq.n	298e <__swbuf_r+0x52>
    297e:	6823      	ldr	r3, [r4, #0]
    2980:	6922      	ldr	r2, [r4, #16]
    2982:	b2f6      	uxtb	r6, r6
    2984:	1a98      	subs	r0, r3, r2
    2986:	6963      	ldr	r3, [r4, #20]
    2988:	4298      	cmp	r0, r3
    298a:	db0f      	blt.n	29ac <__swbuf_r+0x70>
    298c:	e008      	b.n	29a0 <__swbuf_r+0x64>
    298e:	1c28      	adds	r0, r5, #0
    2990:	1c21      	adds	r1, r4, #0
    2992:	f000 f83f 	bl	2a14 <__swsetup_r>
    2996:	2800      	cmp	r0, #0
    2998:	d0f1      	beq.n	297e <__swbuf_r+0x42>
    299a:	2001      	movs	r0, #1
    299c:	4240      	negs	r0, r0
    299e:	e01d      	b.n	29dc <__swbuf_r+0xa0>
    29a0:	1c28      	adds	r0, r5, #0
    29a2:	1c21      	adds	r1, r4, #0
    29a4:	f7ff fbc2 	bl	212c <_fflush_r>
    29a8:	2800      	cmp	r0, #0
    29aa:	d1f6      	bne.n	299a <__swbuf_r+0x5e>
    29ac:	68a3      	ldr	r3, [r4, #8]
    29ae:	3001      	adds	r0, #1
    29b0:	3b01      	subs	r3, #1
    29b2:	60a3      	str	r3, [r4, #8]
    29b4:	6823      	ldr	r3, [r4, #0]
    29b6:	1c5a      	adds	r2, r3, #1
    29b8:	6022      	str	r2, [r4, #0]
    29ba:	701e      	strb	r6, [r3, #0]
    29bc:	6963      	ldr	r3, [r4, #20]
    29be:	4298      	cmp	r0, r3
    29c0:	d005      	beq.n	29ce <__swbuf_r+0x92>
    29c2:	89a3      	ldrh	r3, [r4, #12]
    29c4:	1c30      	adds	r0, r6, #0
    29c6:	07db      	lsls	r3, r3, #31
    29c8:	d508      	bpl.n	29dc <__swbuf_r+0xa0>
    29ca:	2e0a      	cmp	r6, #10
    29cc:	d106      	bne.n	29dc <__swbuf_r+0xa0>
    29ce:	1c28      	adds	r0, r5, #0
    29d0:	1c21      	adds	r1, r4, #0
    29d2:	f7ff fbab 	bl	212c <_fflush_r>
    29d6:	2800      	cmp	r0, #0
    29d8:	d1df      	bne.n	299a <__swbuf_r+0x5e>
    29da:	1c30      	adds	r0, r6, #0
    29dc:	bd70      	pop	{r4, r5, r6, pc}
    29de:	46c0      	nop			; (mov r8, r8)
    29e0:	00002e5c 	.word	0x00002e5c
    29e4:	00002e7c 	.word	0x00002e7c
    29e8:	00002e9c 	.word	0x00002e9c

000029ec <_write_r>:
    29ec:	b538      	push	{r3, r4, r5, lr}
    29ee:	1c05      	adds	r5, r0, #0
    29f0:	2000      	movs	r0, #0
    29f2:	4c07      	ldr	r4, [pc, #28]	; (2a10 <_write_r+0x24>)
    29f4:	6020      	str	r0, [r4, #0]
    29f6:	1c08      	adds	r0, r1, #0
    29f8:	1c11      	adds	r1, r2, #0
    29fa:	1c1a      	adds	r2, r3, #0
    29fc:	f7fd fde0 	bl	5c0 <_write>
    2a00:	1c43      	adds	r3, r0, #1
    2a02:	d103      	bne.n	2a0c <_write_r+0x20>
    2a04:	6823      	ldr	r3, [r4, #0]
    2a06:	2b00      	cmp	r3, #0
    2a08:	d000      	beq.n	2a0c <_write_r+0x20>
    2a0a:	602b      	str	r3, [r5, #0]
    2a0c:	bd38      	pop	{r3, r4, r5, pc}
    2a0e:	46c0      	nop			; (mov r8, r8)
    2a10:	200001fc 	.word	0x200001fc

00002a14 <__swsetup_r>:
    2a14:	4b35      	ldr	r3, [pc, #212]	; (2aec <__swsetup_r+0xd8>)
    2a16:	b570      	push	{r4, r5, r6, lr}
    2a18:	681d      	ldr	r5, [r3, #0]
    2a1a:	1c06      	adds	r6, r0, #0
    2a1c:	1c0c      	adds	r4, r1, #0
    2a1e:	2d00      	cmp	r5, #0
    2a20:	d005      	beq.n	2a2e <__swsetup_r+0x1a>
    2a22:	69ab      	ldr	r3, [r5, #24]
    2a24:	2b00      	cmp	r3, #0
    2a26:	d102      	bne.n	2a2e <__swsetup_r+0x1a>
    2a28:	1c28      	adds	r0, r5, #0
    2a2a:	f7ff fbed 	bl	2208 <__sinit>
    2a2e:	4b30      	ldr	r3, [pc, #192]	; (2af0 <__swsetup_r+0xdc>)
    2a30:	429c      	cmp	r4, r3
    2a32:	d101      	bne.n	2a38 <__swsetup_r+0x24>
    2a34:	686c      	ldr	r4, [r5, #4]
    2a36:	e008      	b.n	2a4a <__swsetup_r+0x36>
    2a38:	4b2e      	ldr	r3, [pc, #184]	; (2af4 <__swsetup_r+0xe0>)
    2a3a:	429c      	cmp	r4, r3
    2a3c:	d101      	bne.n	2a42 <__swsetup_r+0x2e>
    2a3e:	68ac      	ldr	r4, [r5, #8]
    2a40:	e003      	b.n	2a4a <__swsetup_r+0x36>
    2a42:	4b2d      	ldr	r3, [pc, #180]	; (2af8 <__swsetup_r+0xe4>)
    2a44:	429c      	cmp	r4, r3
    2a46:	d100      	bne.n	2a4a <__swsetup_r+0x36>
    2a48:	68ec      	ldr	r4, [r5, #12]
    2a4a:	89a3      	ldrh	r3, [r4, #12]
    2a4c:	b29a      	uxth	r2, r3
    2a4e:	0711      	lsls	r1, r2, #28
    2a50:	d423      	bmi.n	2a9a <__swsetup_r+0x86>
    2a52:	06d1      	lsls	r1, r2, #27
    2a54:	d407      	bmi.n	2a66 <__swsetup_r+0x52>
    2a56:	2209      	movs	r2, #9
    2a58:	2001      	movs	r0, #1
    2a5a:	6032      	str	r2, [r6, #0]
    2a5c:	3237      	adds	r2, #55	; 0x37
    2a5e:	4313      	orrs	r3, r2
    2a60:	81a3      	strh	r3, [r4, #12]
    2a62:	4240      	negs	r0, r0
    2a64:	e040      	b.n	2ae8 <__swsetup_r+0xd4>
    2a66:	0753      	lsls	r3, r2, #29
    2a68:	d513      	bpl.n	2a92 <__swsetup_r+0x7e>
    2a6a:	6b61      	ldr	r1, [r4, #52]	; 0x34
    2a6c:	2900      	cmp	r1, #0
    2a6e:	d008      	beq.n	2a82 <__swsetup_r+0x6e>
    2a70:	1c23      	adds	r3, r4, #0
    2a72:	3344      	adds	r3, #68	; 0x44
    2a74:	4299      	cmp	r1, r3
    2a76:	d002      	beq.n	2a7e <__swsetup_r+0x6a>
    2a78:	1c30      	adds	r0, r6, #0
    2a7a:	f7ff f973 	bl	1d64 <_free_r>
    2a7e:	2300      	movs	r3, #0
    2a80:	6363      	str	r3, [r4, #52]	; 0x34
    2a82:	2224      	movs	r2, #36	; 0x24
    2a84:	89a3      	ldrh	r3, [r4, #12]
    2a86:	4393      	bics	r3, r2
    2a88:	81a3      	strh	r3, [r4, #12]
    2a8a:	2300      	movs	r3, #0
    2a8c:	6063      	str	r3, [r4, #4]
    2a8e:	6923      	ldr	r3, [r4, #16]
    2a90:	6023      	str	r3, [r4, #0]
    2a92:	2208      	movs	r2, #8
    2a94:	89a3      	ldrh	r3, [r4, #12]
    2a96:	4313      	orrs	r3, r2
    2a98:	81a3      	strh	r3, [r4, #12]
    2a9a:	6923      	ldr	r3, [r4, #16]
    2a9c:	2b00      	cmp	r3, #0
    2a9e:	d10b      	bne.n	2ab8 <__swsetup_r+0xa4>
    2aa0:	23a0      	movs	r3, #160	; 0xa0
    2aa2:	89a2      	ldrh	r2, [r4, #12]
    2aa4:	009b      	lsls	r3, r3, #2
    2aa6:	4013      	ands	r3, r2
    2aa8:	2280      	movs	r2, #128	; 0x80
    2aaa:	0092      	lsls	r2, r2, #2
    2aac:	4293      	cmp	r3, r2
    2aae:	d003      	beq.n	2ab8 <__swsetup_r+0xa4>
    2ab0:	1c30      	adds	r0, r6, #0
    2ab2:	1c21      	adds	r1, r4, #0
    2ab4:	f000 f848 	bl	2b48 <__smakebuf_r>
    2ab8:	2301      	movs	r3, #1
    2aba:	89a2      	ldrh	r2, [r4, #12]
    2abc:	4013      	ands	r3, r2
    2abe:	d005      	beq.n	2acc <__swsetup_r+0xb8>
    2ac0:	2300      	movs	r3, #0
    2ac2:	60a3      	str	r3, [r4, #8]
    2ac4:	6963      	ldr	r3, [r4, #20]
    2ac6:	425b      	negs	r3, r3
    2ac8:	61a3      	str	r3, [r4, #24]
    2aca:	e003      	b.n	2ad4 <__swsetup_r+0xc0>
    2acc:	0791      	lsls	r1, r2, #30
    2ace:	d400      	bmi.n	2ad2 <__swsetup_r+0xbe>
    2ad0:	6963      	ldr	r3, [r4, #20]
    2ad2:	60a3      	str	r3, [r4, #8]
    2ad4:	2000      	movs	r0, #0
    2ad6:	6923      	ldr	r3, [r4, #16]
    2ad8:	4283      	cmp	r3, r0
    2ada:	d105      	bne.n	2ae8 <__swsetup_r+0xd4>
    2adc:	0613      	lsls	r3, r2, #24
    2ade:	d503      	bpl.n	2ae8 <__swsetup_r+0xd4>
    2ae0:	2340      	movs	r3, #64	; 0x40
    2ae2:	431a      	orrs	r2, r3
    2ae4:	81a2      	strh	r2, [r4, #12]
    2ae6:	3801      	subs	r0, #1
    2ae8:	bd70      	pop	{r4, r5, r6, pc}
    2aea:	46c0      	nop			; (mov r8, r8)
    2aec:	2000006c 	.word	0x2000006c
    2af0:	00002e5c 	.word	0x00002e5c
    2af4:	00002e7c 	.word	0x00002e7c
    2af8:	00002e9c 	.word	0x00002e9c

00002afc <_close_r>:
    2afc:	b538      	push	{r3, r4, r5, lr}
    2afe:	2300      	movs	r3, #0
    2b00:	4c06      	ldr	r4, [pc, #24]	; (2b1c <_close_r+0x20>)
    2b02:	1c05      	adds	r5, r0, #0
    2b04:	1c08      	adds	r0, r1, #0
    2b06:	6023      	str	r3, [r4, #0]
    2b08:	f7fe ff8a 	bl	1a20 <_close>
    2b0c:	1c43      	adds	r3, r0, #1
    2b0e:	d103      	bne.n	2b18 <_close_r+0x1c>
    2b10:	6823      	ldr	r3, [r4, #0]
    2b12:	2b00      	cmp	r3, #0
    2b14:	d000      	beq.n	2b18 <_close_r+0x1c>
    2b16:	602b      	str	r3, [r5, #0]
    2b18:	bd38      	pop	{r3, r4, r5, pc}
    2b1a:	46c0      	nop			; (mov r8, r8)
    2b1c:	200001fc 	.word	0x200001fc

00002b20 <_lseek_r>:
    2b20:	b538      	push	{r3, r4, r5, lr}
    2b22:	1c05      	adds	r5, r0, #0
    2b24:	2000      	movs	r0, #0
    2b26:	4c07      	ldr	r4, [pc, #28]	; (2b44 <_lseek_r+0x24>)
    2b28:	6020      	str	r0, [r4, #0]
    2b2a:	1c08      	adds	r0, r1, #0
    2b2c:	1c11      	adds	r1, r2, #0
    2b2e:	1c1a      	adds	r2, r3, #0
    2b30:	f7fe ff82 	bl	1a38 <_lseek>
    2b34:	1c43      	adds	r3, r0, #1
    2b36:	d103      	bne.n	2b40 <_lseek_r+0x20>
    2b38:	6823      	ldr	r3, [r4, #0]
    2b3a:	2b00      	cmp	r3, #0
    2b3c:	d000      	beq.n	2b40 <_lseek_r+0x20>
    2b3e:	602b      	str	r3, [r5, #0]
    2b40:	bd38      	pop	{r3, r4, r5, pc}
    2b42:	46c0      	nop			; (mov r8, r8)
    2b44:	200001fc 	.word	0x200001fc

00002b48 <__smakebuf_r>:
    2b48:	b5f0      	push	{r4, r5, r6, r7, lr}
    2b4a:	898b      	ldrh	r3, [r1, #12]
    2b4c:	b091      	sub	sp, #68	; 0x44
    2b4e:	079b      	lsls	r3, r3, #30
    2b50:	d506      	bpl.n	2b60 <__smakebuf_r+0x18>
    2b52:	1c0b      	adds	r3, r1, #0
    2b54:	3347      	adds	r3, #71	; 0x47
    2b56:	600b      	str	r3, [r1, #0]
    2b58:	610b      	str	r3, [r1, #16]
    2b5a:	2301      	movs	r3, #1
    2b5c:	614b      	str	r3, [r1, #20]
    2b5e:	e045      	b.n	2bec <__smakebuf_r+0xa4>
    2b60:	1c0c      	adds	r4, r1, #0
    2b62:	230e      	movs	r3, #14
    2b64:	5ec9      	ldrsh	r1, [r1, r3]
    2b66:	1c06      	adds	r6, r0, #0
    2b68:	2900      	cmp	r1, #0
    2b6a:	da04      	bge.n	2b76 <__smakebuf_r+0x2e>
    2b6c:	2380      	movs	r3, #128	; 0x80
    2b6e:	89a5      	ldrh	r5, [r4, #12]
    2b70:	401d      	ands	r5, r3
    2b72:	d110      	bne.n	2b96 <__smakebuf_r+0x4e>
    2b74:	e00c      	b.n	2b90 <__smakebuf_r+0x48>
    2b76:	aa01      	add	r2, sp, #4
    2b78:	f000 f85e 	bl	2c38 <_fstat_r>
    2b7c:	2800      	cmp	r0, #0
    2b7e:	dbf5      	blt.n	2b6c <__smakebuf_r+0x24>
    2b80:	23f0      	movs	r3, #240	; 0xf0
    2b82:	9d02      	ldr	r5, [sp, #8]
    2b84:	021b      	lsls	r3, r3, #8
    2b86:	401d      	ands	r5, r3
    2b88:	4b19      	ldr	r3, [pc, #100]	; (2bf0 <__smakebuf_r+0xa8>)
    2b8a:	18ed      	adds	r5, r5, r3
    2b8c:	426b      	negs	r3, r5
    2b8e:	415d      	adcs	r5, r3
    2b90:	2780      	movs	r7, #128	; 0x80
    2b92:	00ff      	lsls	r7, r7, #3
    2b94:	e001      	b.n	2b9a <__smakebuf_r+0x52>
    2b96:	2500      	movs	r5, #0
    2b98:	2740      	movs	r7, #64	; 0x40
    2b9a:	1c30      	adds	r0, r6, #0
    2b9c:	1c39      	adds	r1, r7, #0
    2b9e:	f7ff f927 	bl	1df0 <_malloc_r>
    2ba2:	2800      	cmp	r0, #0
    2ba4:	d10c      	bne.n	2bc0 <__smakebuf_r+0x78>
    2ba6:	89a3      	ldrh	r3, [r4, #12]
    2ba8:	059a      	lsls	r2, r3, #22
    2baa:	d41f      	bmi.n	2bec <__smakebuf_r+0xa4>
    2bac:	2202      	movs	r2, #2
    2bae:	4313      	orrs	r3, r2
    2bb0:	81a3      	strh	r3, [r4, #12]
    2bb2:	1c23      	adds	r3, r4, #0
    2bb4:	3347      	adds	r3, #71	; 0x47
    2bb6:	6023      	str	r3, [r4, #0]
    2bb8:	6123      	str	r3, [r4, #16]
    2bba:	2301      	movs	r3, #1
    2bbc:	6163      	str	r3, [r4, #20]
    2bbe:	e015      	b.n	2bec <__smakebuf_r+0xa4>
    2bc0:	2280      	movs	r2, #128	; 0x80
    2bc2:	4b0c      	ldr	r3, [pc, #48]	; (2bf4 <__smakebuf_r+0xac>)
    2bc4:	62b3      	str	r3, [r6, #40]	; 0x28
    2bc6:	89a3      	ldrh	r3, [r4, #12]
    2bc8:	6020      	str	r0, [r4, #0]
    2bca:	4313      	orrs	r3, r2
    2bcc:	81a3      	strh	r3, [r4, #12]
    2bce:	6120      	str	r0, [r4, #16]
    2bd0:	6167      	str	r7, [r4, #20]
    2bd2:	2d00      	cmp	r5, #0
    2bd4:	d00a      	beq.n	2bec <__smakebuf_r+0xa4>
    2bd6:	230e      	movs	r3, #14
    2bd8:	5ee1      	ldrsh	r1, [r4, r3]
    2bda:	1c30      	adds	r0, r6, #0
    2bdc:	f000 f83e 	bl	2c5c <_isatty_r>
    2be0:	2800      	cmp	r0, #0
    2be2:	d003      	beq.n	2bec <__smakebuf_r+0xa4>
    2be4:	2201      	movs	r2, #1
    2be6:	89a3      	ldrh	r3, [r4, #12]
    2be8:	4313      	orrs	r3, r2
    2bea:	81a3      	strh	r3, [r4, #12]
    2bec:	b011      	add	sp, #68	; 0x44
    2bee:	bdf0      	pop	{r4, r5, r6, r7, pc}
    2bf0:	ffffe000 	.word	0xffffe000
    2bf4:	00002185 	.word	0x00002185

00002bf8 <memchr>:
    2bf8:	b2c9      	uxtb	r1, r1
    2bfa:	1882      	adds	r2, r0, r2
    2bfc:	4290      	cmp	r0, r2
    2bfe:	d004      	beq.n	2c0a <memchr+0x12>
    2c00:	7803      	ldrb	r3, [r0, #0]
    2c02:	428b      	cmp	r3, r1
    2c04:	d002      	beq.n	2c0c <memchr+0x14>
    2c06:	3001      	adds	r0, #1
    2c08:	e7f8      	b.n	2bfc <memchr+0x4>
    2c0a:	2000      	movs	r0, #0
    2c0c:	4770      	bx	lr
	...

00002c10 <_read_r>:
    2c10:	b538      	push	{r3, r4, r5, lr}
    2c12:	1c05      	adds	r5, r0, #0
    2c14:	2000      	movs	r0, #0
    2c16:	4c07      	ldr	r4, [pc, #28]	; (2c34 <_read_r+0x24>)
    2c18:	6020      	str	r0, [r4, #0]
    2c1a:	1c08      	adds	r0, r1, #0
    2c1c:	1c11      	adds	r1, r2, #0
    2c1e:	1c1a      	adds	r2, r3, #0
    2c20:	f7fd fcac 	bl	57c <_read>
    2c24:	1c43      	adds	r3, r0, #1
    2c26:	d103      	bne.n	2c30 <_read_r+0x20>
    2c28:	6823      	ldr	r3, [r4, #0]
    2c2a:	2b00      	cmp	r3, #0
    2c2c:	d000      	beq.n	2c30 <_read_r+0x20>
    2c2e:	602b      	str	r3, [r5, #0]
    2c30:	bd38      	pop	{r3, r4, r5, pc}
    2c32:	46c0      	nop			; (mov r8, r8)
    2c34:	200001fc 	.word	0x200001fc

00002c38 <_fstat_r>:
    2c38:	b538      	push	{r3, r4, r5, lr}
    2c3a:	2300      	movs	r3, #0
    2c3c:	4c06      	ldr	r4, [pc, #24]	; (2c58 <_fstat_r+0x20>)
    2c3e:	1c05      	adds	r5, r0, #0
    2c40:	1c08      	adds	r0, r1, #0
    2c42:	1c11      	adds	r1, r2, #0
    2c44:	6023      	str	r3, [r4, #0]
    2c46:	f7fe feef 	bl	1a28 <_fstat>
    2c4a:	1c43      	adds	r3, r0, #1
    2c4c:	d103      	bne.n	2c56 <_fstat_r+0x1e>
    2c4e:	6823      	ldr	r3, [r4, #0]
    2c50:	2b00      	cmp	r3, #0
    2c52:	d000      	beq.n	2c56 <_fstat_r+0x1e>
    2c54:	602b      	str	r3, [r5, #0]
    2c56:	bd38      	pop	{r3, r4, r5, pc}
    2c58:	200001fc 	.word	0x200001fc

00002c5c <_isatty_r>:
    2c5c:	b538      	push	{r3, r4, r5, lr}
    2c5e:	2300      	movs	r3, #0
    2c60:	4c06      	ldr	r4, [pc, #24]	; (2c7c <_isatty_r+0x20>)
    2c62:	1c05      	adds	r5, r0, #0
    2c64:	1c08      	adds	r0, r1, #0
    2c66:	6023      	str	r3, [r4, #0]
    2c68:	f7fe fee4 	bl	1a34 <_isatty>
    2c6c:	1c43      	adds	r3, r0, #1
    2c6e:	d103      	bne.n	2c78 <_isatty_r+0x1c>
    2c70:	6823      	ldr	r3, [r4, #0]
    2c72:	2b00      	cmp	r3, #0
    2c74:	d000      	beq.n	2c78 <_isatty_r+0x1c>
    2c76:	602b      	str	r3, [r5, #0]
    2c78:	bd38      	pop	{r3, r4, r5, pc}
    2c7a:	46c0      	nop			; (mov r8, r8)
    2c7c:	200001fc 	.word	0x200001fc
    2c80:	42000800 	.word	0x42000800
    2c84:	42000c00 	.word	0x42000c00
    2c88:	42001000 	.word	0x42001000
    2c8c:	42001400 	.word	0x42001400
    2c90:	42001800 	.word	0x42001800
    2c94:	42001c00 	.word	0x42001c00
    2c98:	0c0b0a09 	.word	0x0c0b0a09
    2c9c:	00000e0d 	.word	0x00000e0d

00002ca0 <_tcc_intflag>:
    2ca0:	00000001 00000002 00000004 00000008     ................
    2cb0:	00001000 00002000 00004000 00008000     ..... ...@......
    2cc0:	00010000 00020000 00040000 00080000     ................
    2cd0:	0000105a 00001056 00001056 000010b6     Z...V...V.......
    2ce0:	000010b6 00001070 00001060 00001076     ....p...`...v...
    2cf0:	000010a4 00001324 00001304 00001304     ....$...........
    2d00:	00001390 00001316 00001332 00001308     ........2.......
    2d10:	00001340 00001380 71657246 636e6575     @.......Frequenc
    2d20:	25203a79 2d202075 202d2d2d 79747544     y: %u  ---- Duty
    2d30:	63796320 203a656c 000a7525 746e4920      cycle: %u.. Int
    2d40:	75727265 73207370 65746174 7325203a     errups state: %s
    2d50:	0000000a 00000030 00000031 74746962     ....0...1...bitt
    2d60:	735f7265 74656577 343d643a 353d6f2c     er_sweet:d=4,o=5
    2d70:	313d622c 383a3030 32332c70 2c362e64     ,b=100:8p,32d.6,
    2d80:	2c703631 36663233 7036312c 6432332c     16p,32f6,16p,32d
    2d90:	36312c36 32332c70 362e2364 7036312c     6,16p,32d#.6,16p
    2da0:	6332332c 36312c36 23642c70 32332c36     ,32c6,16p,d#6,32
    2db0:	32332c70 2c362367 2c703631 23643233     p,32g#6,16p,32d#
    2dc0:	36312c36 23672c70 32332c36 32332c70     6,16p,g#6,32p,32
    2dd0:	312c3667 332c7036 2e236432 36312c36     g6,16p,32d#.6,16
    2de0:	36672c70 2c70382c 2e643233 36312c36     p,g6,8p,32d.6,16
    2df0:	32332c70 312c3666 332c7036 2c366432     p,32f6,16p,32d6,
    2e00:	2c703631 23643233 312c362e 332c7036     16p,32d#.6,16p,3
    2e10:	2c366332 2c703631 2c362364 2c703233     2c6,16p,d#6,32p,
    2e20:	23673233 36312c36 32332c70 2c362364     32g#6,16p,32d#6,
    2e30:	2c703631 2c362367 2c703233 36673233     16p,g#6,32p,32g6
    2e40:	7036312c 6432332c 2c362e23 2c703631     ,16p,32d#.6,16p,
    2e50:	00003667 00000043                       g6..C...

00002e58 <_global_impure_ptr>:
    2e58:	2000000c                                ... 

00002e5c <__sf_fake_stdin>:
	...

00002e7c <__sf_fake_stdout>:
	...

00002e9c <__sf_fake_stderr>:
	...
    2ebc:	2b302d23 6c680020 6665004c 47464567     #-0+ .hlL.efgEFG
    2ecc:	32313000 36353433 41393837 45444342     .0123456789ABCDE
    2edc:	31300046 35343332 39383736 64636261     F.0123456789abcd
    2eec:	00006665                                ef..

00002ef0 <_init>:
    2ef0:	b5f8      	push	{r3, r4, r5, r6, r7, lr}
    2ef2:	46c0      	nop			; (mov r8, r8)
    2ef4:	bcf8      	pop	{r3, r4, r5, r6, r7}
    2ef6:	bc08      	pop	{r3}
    2ef8:	469e      	mov	lr, r3
    2efa:	4770      	bx	lr

00002efc <__init_array_start>:
    2efc:	000000dd 	.word	0x000000dd

00002f00 <_fini>:
    2f00:	b5f8      	push	{r3, r4, r5, r6, r7, lr}
    2f02:	46c0      	nop			; (mov r8, r8)
    2f04:	bcf8      	pop	{r3, r4, r5, r6, r7}
    2f06:	bc08      	pop	{r3}
    2f08:	469e      	mov	lr, r3
    2f0a:	4770      	bx	lr

00002f0c <__fini_array_start>:
    2f0c:	000000b5 	.word	0x000000b5
